
ATmega8Interapt.elf:     file format elf32-avr

Sections:
Idx Name          Size      VMA       LMA       File off  Algn
  0 .text         000017c0  00000000  00000000  00000094  2**1
                  CONTENTS, ALLOC, LOAD, READONLY, CODE
  1 .data         00000002  00800060  000017c0  00001854  2**0
                  CONTENTS, ALLOC, LOAD, DATA
  2 .bss          00000080  00800062  00800062  00001856  2**0
                  ALLOC
  3 .comment      00000030  00000000  00000000  00001856  2**0
                  CONTENTS, READONLY
  4 .note.gnu.avr.deviceinfo 0000003c  00000000  00000000  00001888  2**2
                  CONTENTS, READONLY
  5 .debug_aranges 00000208  00000000  00000000  000018c4  2**0
                  CONTENTS, READONLY, DEBUGGING
  6 .debug_info   00003813  00000000  00000000  00001acc  2**0
                  CONTENTS, READONLY, DEBUGGING
  7 .debug_abbrev 00000c8e  00000000  00000000  000052df  2**0
                  CONTENTS, READONLY, DEBUGGING
  8 .debug_line   000017ba  00000000  00000000  00005f6d  2**0
                  CONTENTS, READONLY, DEBUGGING
  9 .debug_frame  000005d4  00000000  00000000  00007728  2**2
                  CONTENTS, READONLY, DEBUGGING
 10 .debug_str    00000bf8  00000000  00000000  00007cfc  2**0
                  CONTENTS, READONLY, DEBUGGING
 11 .debug_loc    0000240e  00000000  00000000  000088f4  2**0
                  CONTENTS, READONLY, DEBUGGING
 12 .debug_ranges 000001b8  00000000  00000000  0000ad02  2**0
                  CONTENTS, READONLY, DEBUGGING

Disassembly of section .text:

00000000 <__vectors>:
       0:	1c c0       	rjmp	.+56     	; 0x3a <__ctors_end>
       2:	36 c0       	rjmp	.+108    	; 0x70 <__bad_interrupt>
       4:	35 c0       	rjmp	.+106    	; 0x70 <__bad_interrupt>
       6:	34 c0       	rjmp	.+104    	; 0x70 <__bad_interrupt>
       8:	33 c0       	rjmp	.+102    	; 0x70 <__bad_interrupt>
       a:	32 c0       	rjmp	.+100    	; 0x70 <__bad_interrupt>
       c:	6c c3       	rjmp	.+1752   	; 0x6e6 <__vector_6>
       e:	30 c0       	rjmp	.+96     	; 0x70 <__bad_interrupt>
      10:	2f c0       	rjmp	.+94     	; 0x70 <__bad_interrupt>
      12:	2e c0       	rjmp	.+92     	; 0x70 <__bad_interrupt>
      14:	2d c0       	rjmp	.+90     	; 0x70 <__bad_interrupt>
      16:	2c c0       	rjmp	.+88     	; 0x70 <__bad_interrupt>
      18:	2b c0       	rjmp	.+86     	; 0x70 <__bad_interrupt>
      1a:	2a c0       	rjmp	.+84     	; 0x70 <__bad_interrupt>
      1c:	29 c0       	rjmp	.+82     	; 0x70 <__bad_interrupt>
      1e:	28 c0       	rjmp	.+80     	; 0x70 <__bad_interrupt>
      20:	27 c0       	rjmp	.+78     	; 0x70 <__bad_interrupt>
      22:	26 c0       	rjmp	.+76     	; 0x70 <__bad_interrupt>
      24:	25 c0       	rjmp	.+74     	; 0x70 <__bad_interrupt>
      26:	f8 c1       	rjmp	.+1008   	; 0x418 <__LOCK_REGION_LENGTH__+0x18>
      28:	f9 c1       	rjmp	.+1010   	; 0x41c <__LOCK_REGION_LENGTH__+0x1c>
      2a:	fa c1       	rjmp	.+1012   	; 0x420 <__LOCK_REGION_LENGTH__+0x20>
      2c:	fb c1       	rjmp	.+1014   	; 0x424 <__LOCK_REGION_LENGTH__+0x24>
      2e:	fc c1       	rjmp	.+1016   	; 0x428 <__LOCK_REGION_LENGTH__+0x28>
      30:	fd c1       	rjmp	.+1018   	; 0x42c <__LOCK_REGION_LENGTH__+0x2c>
      32:	fe c1       	rjmp	.+1020   	; 0x430 <__LOCK_REGION_LENGTH__+0x30>
      34:	ff c1       	rjmp	.+1022   	; 0x434 <__LOCK_REGION_LENGTH__+0x34>
      36:	00 c2       	rjmp	.+1024   	; 0x438 <__LOCK_REGION_LENGTH__+0x38>
      38:	01 c2       	rjmp	.+1026   	; 0x43c <__LOCK_REGION_LENGTH__+0x3c>

0000003a <__ctors_end>:
      3a:	11 24       	eor	r1, r1
      3c:	1f be       	out	0x3f, r1	; 63
      3e:	cf e5       	ldi	r28, 0x5F	; 95
      40:	d4 e0       	ldi	r29, 0x04	; 4
      42:	de bf       	out	0x3e, r29	; 62
      44:	cd bf       	out	0x3d, r28	; 61

00000046 <__do_copy_data>:
      46:	10 e0       	ldi	r17, 0x00	; 0
      48:	a0 e6       	ldi	r26, 0x60	; 96
      4a:	b0 e0       	ldi	r27, 0x00	; 0
      4c:	e0 ec       	ldi	r30, 0xC0	; 192
      4e:	f7 e1       	ldi	r31, 0x17	; 23
      50:	02 c0       	rjmp	.+4      	; 0x56 <__do_copy_data+0x10>
      52:	05 90       	lpm	r0, Z+
      54:	0d 92       	st	X+, r0
      56:	a2 36       	cpi	r26, 0x62	; 98
      58:	b1 07       	cpc	r27, r17
      5a:	d9 f7       	brne	.-10     	; 0x52 <__do_copy_data+0xc>

0000005c <__do_clear_bss>:
      5c:	20 e0       	ldi	r18, 0x00	; 0
      5e:	a2 e6       	ldi	r26, 0x62	; 98
      60:	b0 e0       	ldi	r27, 0x00	; 0
      62:	01 c0       	rjmp	.+2      	; 0x66 <.do_clear_bss_start>

00000064 <.do_clear_bss_loop>:
      64:	1d 92       	st	X+, r1

00000066 <.do_clear_bss_start>:
      66:	a2 3e       	cpi	r26, 0xE2	; 226
      68:	b2 07       	cpc	r27, r18
      6a:	e1 f7       	brne	.-8      	; 0x64 <.do_clear_bss_loop>
      6c:	83 d6       	rcall	.+3334   	; 0xd74 <main>
      6e:	a6 cb       	rjmp	.-2228   	; 0xfffff7bc <__eeprom_end+0xff7ef7bc>

00000070 <__bad_interrupt>:
      70:	c7 cf       	rjmp	.-114    	; 0x0 <__vectors>

00000072 <_ZN6Button4InitEci>:
#include "Button.h"
#include <avr/io.h>


void Button::Init(char port, int pin)
{
      72:	fc 01       	movw	r30, r24
	_port = port;
      74:	60 83       	st	Z, r22
	_pin = pin;
      76:	41 83       	std	Z+1, r20	; 0x01
      78:	52 83       	std	Z+2, r21	; 0x02
	debounce = 10;
      7a:	8a e0       	ldi	r24, 0x0A	; 10
      7c:	90 e0       	ldi	r25, 0x00	; 0
      7e:	94 83       	std	Z+4, r25	; 0x04
      80:	83 83       	std	Z+3, r24	; 0x03
	switch (_port){
      82:	63 34       	cpi	r22, 0x43	; 67
      84:	a1 f0       	breq	.+40     	; 0xae <_ZN6Button4InitEci+0x3c>
      86:	64 34       	cpi	r22, 0x44	; 68
      88:	11 f1       	breq	.+68     	; 0xce <_ZN6Button4InitEci+0x5c>
      8a:	62 34       	cpi	r22, 0x42	; 66
      8c:	79 f5       	brne	.+94     	; 0xec <_ZN6Button4InitEci+0x7a>
		case 'B': DDRB &= ~(1<<(pin)); PORTB |= (1<<(pin)); break;
      8e:	27 b3       	in	r18, 0x17	; 23
      90:	81 e0       	ldi	r24, 0x01	; 1
      92:	90 e0       	ldi	r25, 0x00	; 0
      94:	02 c0       	rjmp	.+4      	; 0x9a <_ZN6Button4InitEci+0x28>
      96:	88 0f       	add	r24, r24
      98:	99 1f       	adc	r25, r25
      9a:	4a 95       	dec	r20
      9c:	e2 f7       	brpl	.-8      	; 0x96 <_ZN6Button4InitEci+0x24>
      9e:	98 2f       	mov	r25, r24
      a0:	90 95       	com	r25
      a2:	92 23       	and	r25, r18
      a4:	97 bb       	out	0x17, r25	; 23
      a6:	98 b3       	in	r25, 0x18	; 24
      a8:	89 2b       	or	r24, r25
      aa:	88 bb       	out	0x18, r24	; 24
      ac:	08 95       	ret
		case 'C': DDRC &= ~(1<<(pin)); PORTC |= (1<<(pin)); break;
      ae:	24 b3       	in	r18, 0x14	; 20
      b0:	81 e0       	ldi	r24, 0x01	; 1
      b2:	90 e0       	ldi	r25, 0x00	; 0
      b4:	02 c0       	rjmp	.+4      	; 0xba <_ZN6Button4InitEci+0x48>
      b6:	88 0f       	add	r24, r24
      b8:	99 1f       	adc	r25, r25
      ba:	4a 95       	dec	r20
      bc:	e2 f7       	brpl	.-8      	; 0xb6 <_ZN6Button4InitEci+0x44>
      be:	98 2f       	mov	r25, r24
      c0:	90 95       	com	r25
      c2:	92 23       	and	r25, r18
      c4:	94 bb       	out	0x14, r25	; 20
      c6:	95 b3       	in	r25, 0x15	; 21
      c8:	89 2b       	or	r24, r25
      ca:	85 bb       	out	0x15, r24	; 21
      cc:	08 95       	ret
		case 'D': DDRD &= ~(1<<(pin)); PORTD |= (1<<(pin)); break;
      ce:	21 b3       	in	r18, 0x11	; 17
      d0:	81 e0       	ldi	r24, 0x01	; 1
      d2:	90 e0       	ldi	r25, 0x00	; 0
      d4:	02 c0       	rjmp	.+4      	; 0xda <_ZN6Button4InitEci+0x68>
      d6:	88 0f       	add	r24, r24
      d8:	99 1f       	adc	r25, r25
      da:	4a 95       	dec	r20
      dc:	e2 f7       	brpl	.-8      	; 0xd6 <_ZN6Button4InitEci+0x64>
      de:	98 2f       	mov	r25, r24
      e0:	90 95       	com	r25
      e2:	92 23       	and	r25, r18
      e4:	91 bb       	out	0x11, r25	; 17
      e6:	92 b3       	in	r25, 0x12	; 18
      e8:	89 2b       	or	r24, r25
      ea:	82 bb       	out	0x12, r24	; 18
      ec:	08 95       	ret

000000ee <_ZN6Button9PressReadEv>:
	

}

bool Button::PressRead(){
	if (pressed){
      ee:	fc 01       	movw	r30, r24
      f0:	27 81       	ldd	r18, Z+7	; 0x07
      f2:	30 85       	ldd	r19, Z+8	; 0x08
      f4:	23 2b       	or	r18, r19
      f6:	21 f0       	breq	.+8      	; 0x100 <_ZN6Button9PressReadEv+0x12>
		pressed =false;
      f8:	10 86       	std	Z+8, r1	; 0x08
      fa:	17 82       	std	Z+7, r1	; 0x07
		return true;
      fc:	81 e0       	ldi	r24, 0x01	; 1
      fe:	08 95       	ret
	}else{
		return false;
     100:	80 e0       	ldi	r24, 0x00	; 0
	}
}
     102:	08 95       	ret

00000104 <_ZN6Button7ReadPinEv>:

bool Button::ReadPin(){
     104:	fc 01       	movw	r30, r24
	bool read_pin;
	switch (_port){
     106:	90 81       	ld	r25, Z
     108:	93 34       	cpi	r25, 0x43	; 67
     10a:	79 f0       	breq	.+30     	; 0x12a <_ZN6Button7ReadPinEv+0x26>
     10c:	94 34       	cpi	r25, 0x44	; 68
     10e:	c1 f0       	breq	.+48     	; 0x140 <_ZN6Button7ReadPinEv+0x3c>
     110:	92 34       	cpi	r25, 0x42	; 66
     112:	19 f5       	brne	.+70     	; 0x15a <_ZN6Button7ReadPinEv+0x56>
		case 'B': read_pin = ((1 << _pin) & PINB); break;
     114:	26 b3       	in	r18, 0x16	; 22
     116:	30 e0       	ldi	r19, 0x00	; 0
     118:	c9 01       	movw	r24, r18
     11a:	01 80       	ldd	r0, Z+1	; 0x01
     11c:	02 c0       	rjmp	.+4      	; 0x122 <_ZN6Button7ReadPinEv+0x1e>
     11e:	95 95       	asr	r25
     120:	87 95       	ror	r24
     122:	0a 94       	dec	r0
     124:	e2 f7       	brpl	.-8      	; 0x11e <_ZN6Button7ReadPinEv+0x1a>
     126:	81 70       	andi	r24, 0x01	; 1
     128:	15 c0       	rjmp	.+42     	; 0x154 <_ZN6Button7ReadPinEv+0x50>
		case 'C': read_pin = ((1 << _pin) & PINC); break;
     12a:	23 b3       	in	r18, 0x13	; 19
     12c:	30 e0       	ldi	r19, 0x00	; 0
     12e:	c9 01       	movw	r24, r18
     130:	01 80       	ldd	r0, Z+1	; 0x01
     132:	02 c0       	rjmp	.+4      	; 0x138 <_ZN6Button7ReadPinEv+0x34>
     134:	95 95       	asr	r25
     136:	87 95       	ror	r24
     138:	0a 94       	dec	r0
     13a:	e2 f7       	brpl	.-8      	; 0x134 <_ZN6Button7ReadPinEv+0x30>
     13c:	81 70       	andi	r24, 0x01	; 1
     13e:	0a c0       	rjmp	.+20     	; 0x154 <_ZN6Button7ReadPinEv+0x50>
		case 'D': read_pin = ((1 << _pin) & PIND); break;
     140:	20 b3       	in	r18, 0x10	; 16
     142:	30 e0       	ldi	r19, 0x00	; 0
     144:	c9 01       	movw	r24, r18
     146:	01 80       	ldd	r0, Z+1	; 0x01
     148:	02 c0       	rjmp	.+4      	; 0x14e <_ZN6Button7ReadPinEv+0x4a>
     14a:	95 95       	asr	r25
     14c:	87 95       	ror	r24
     14e:	0a 94       	dec	r0
     150:	e2 f7       	brpl	.-8      	; 0x14a <_ZN6Button7ReadPinEv+0x46>
     152:	81 70       	andi	r24, 0x01	; 1
		default: return false;
	}
	if (!read_pin){
     154:	91 e0       	ldi	r25, 0x01	; 1
     156:	89 27       	eor	r24, r25
     158:	08 95       	ret
	bool read_pin;
	switch (_port){
		case 'B': read_pin = ((1 << _pin) & PINB); break;
		case 'C': read_pin = ((1 << _pin) & PINC); break;
		case 'D': read_pin = ((1 << _pin) & PIND); break;
		default: return false;
     15a:	80 e0       	ldi	r24, 0x00	; 0
	}
	if (!read_pin){
		return true;
	}else{return false;}
}
     15c:	08 95       	ret

0000015e <_ZN6Button4ScanEv>:
		case 'D': DDRD &= ~(1<<(pin)); PORTD |= (1<<(pin)); break;
	}
	
}

void Button::Scan(){
     15e:	cf 93       	push	r28
     160:	df 93       	push	r29
     162:	ec 01       	movw	r28, r24
	bool read_pin = ReadPin();
     164:	cf df       	rcall	.-98     	; 0x104 <_ZN6Button7ReadPinEv>
	
	if (read_pin){
     166:	88 23       	and	r24, r24
     168:	89 f0       	breq	.+34     	; 0x18c <_ZN6Button4ScanEv+0x2e>
		countDebounce++;
     16a:	8d 81       	ldd	r24, Y+5	; 0x05
     16c:	9e 81       	ldd	r25, Y+6	; 0x06
     16e:	01 96       	adiw	r24, 0x01	; 1
     170:	9e 83       	std	Y+6, r25	; 0x06
     172:	8d 83       	std	Y+5, r24	; 0x05
		if (countDebounce>debounce){
     174:	2b 81       	ldd	r18, Y+3	; 0x03
     176:	3c 81       	ldd	r19, Y+4	; 0x04
     178:	28 17       	cp	r18, r24
     17a:	39 07       	cpc	r19, r25
     17c:	9c f4       	brge	.+38     	; 0x1a4 <_ZN6Button4ScanEv+0x46>
			countDebounce = debounce;
     17e:	3e 83       	std	Y+6, r19	; 0x06
     180:	2d 83       	std	Y+5, r18	; 0x05
			getpressed = true;
     182:	81 e0       	ldi	r24, 0x01	; 1
     184:	90 e0       	ldi	r25, 0x00	; 0
     186:	9a 87       	std	Y+10, r25	; 0x0a
     188:	89 87       	std	Y+9, r24	; 0x09
     18a:	0c c0       	rjmp	.+24     	; 0x1a4 <_ZN6Button4ScanEv+0x46>
		}
	}else{
		countDebounce = 0;
     18c:	1e 82       	std	Y+6, r1	; 0x06
     18e:	1d 82       	std	Y+5, r1	; 0x05
		if (getpressed){pressed=true;}
     190:	89 85       	ldd	r24, Y+9	; 0x09
     192:	9a 85       	ldd	r25, Y+10	; 0x0a
     194:	89 2b       	or	r24, r25
     196:	21 f0       	breq	.+8      	; 0x1a0 <_ZN6Button4ScanEv+0x42>
     198:	81 e0       	ldi	r24, 0x01	; 1
     19a:	90 e0       	ldi	r25, 0x00	; 0
     19c:	98 87       	std	Y+8, r25	; 0x08
     19e:	8f 83       	std	Y+7, r24	; 0x07
		getpressed = false;	
     1a0:	1a 86       	std	Y+10, r1	; 0x0a
     1a2:	19 86       	std	Y+9, r1	; 0x09
	}
	

}
     1a4:	df 91       	pop	r29
     1a6:	cf 91       	pop	r28
     1a8:	08 95       	ret

000001aa <_ZN5Input4InitEci>:

#include "Input.h"
#include <avr/io.h>

void Input::Init(char port, int pin)
{
     1aa:	fc 01       	movw	r30, r24
	_port = port;
     1ac:	60 83       	st	Z, r22
	_pin = pin;
     1ae:	41 83       	std	Z+1, r20	; 0x01
     1b0:	52 83       	std	Z+2, r21	; 0x02
	switch (_port){
     1b2:	63 34       	cpi	r22, 0x43	; 67
     1b4:	a1 f0       	breq	.+40     	; 0x1de <_ZN5Input4InitEci+0x34>
     1b6:	64 34       	cpi	r22, 0x44	; 68
     1b8:	11 f1       	breq	.+68     	; 0x1fe <_ZN5Input4InitEci+0x54>
     1ba:	62 34       	cpi	r22, 0x42	; 66
     1bc:	79 f5       	brne	.+94     	; 0x21c <_ZN5Input4InitEci+0x72>
		case 'B': DDRB &= ~(1<<(pin)); PORTB |= (1<<(pin)); break;
     1be:	27 b3       	in	r18, 0x17	; 23
     1c0:	81 e0       	ldi	r24, 0x01	; 1
     1c2:	90 e0       	ldi	r25, 0x00	; 0
     1c4:	02 c0       	rjmp	.+4      	; 0x1ca <_ZN5Input4InitEci+0x20>
     1c6:	88 0f       	add	r24, r24
     1c8:	99 1f       	adc	r25, r25
     1ca:	4a 95       	dec	r20
     1cc:	e2 f7       	brpl	.-8      	; 0x1c6 <_ZN5Input4InitEci+0x1c>
     1ce:	98 2f       	mov	r25, r24
     1d0:	90 95       	com	r25
     1d2:	92 23       	and	r25, r18
     1d4:	97 bb       	out	0x17, r25	; 23
     1d6:	98 b3       	in	r25, 0x18	; 24
     1d8:	89 2b       	or	r24, r25
     1da:	88 bb       	out	0x18, r24	; 24
     1dc:	08 95       	ret
		case 'C': DDRC &= ~(1<<(pin)); PORTC |= (1<<(pin)); break;
     1de:	24 b3       	in	r18, 0x14	; 20
     1e0:	81 e0       	ldi	r24, 0x01	; 1
     1e2:	90 e0       	ldi	r25, 0x00	; 0
     1e4:	02 c0       	rjmp	.+4      	; 0x1ea <_ZN5Input4InitEci+0x40>
     1e6:	88 0f       	add	r24, r24
     1e8:	99 1f       	adc	r25, r25
     1ea:	4a 95       	dec	r20
     1ec:	e2 f7       	brpl	.-8      	; 0x1e6 <_ZN5Input4InitEci+0x3c>
     1ee:	98 2f       	mov	r25, r24
     1f0:	90 95       	com	r25
     1f2:	92 23       	and	r25, r18
     1f4:	94 bb       	out	0x14, r25	; 20
     1f6:	95 b3       	in	r25, 0x15	; 21
     1f8:	89 2b       	or	r24, r25
     1fa:	85 bb       	out	0x15, r24	; 21
     1fc:	08 95       	ret
		case 'D': DDRD &= ~(1<<(pin)); PORTD |= (1<<(pin)); break;
     1fe:	21 b3       	in	r18, 0x11	; 17
     200:	81 e0       	ldi	r24, 0x01	; 1
     202:	90 e0       	ldi	r25, 0x00	; 0
     204:	02 c0       	rjmp	.+4      	; 0x20a <_ZN5Input4InitEci+0x60>
     206:	88 0f       	add	r24, r24
     208:	99 1f       	adc	r25, r25
     20a:	4a 95       	dec	r20
     20c:	e2 f7       	brpl	.-8      	; 0x206 <_ZN5Input4InitEci+0x5c>
     20e:	98 2f       	mov	r25, r24
     210:	90 95       	com	r25
     212:	92 23       	and	r25, r18
     214:	91 bb       	out	0x11, r25	; 17
     216:	92 b3       	in	r25, 0x12	; 18
     218:	89 2b       	or	r24, r25
     21a:	82 bb       	out	0x12, r24	; 18
     21c:	08 95       	ret

0000021e <_ZN5Input4ReadEv>:
	}
	
}

bool Input::Read(){
     21e:	fc 01       	movw	r30, r24
	bool read_pin;
	switch (_port){
     220:	90 81       	ld	r25, Z
     222:	93 34       	cpi	r25, 0x43	; 67
     224:	79 f0       	breq	.+30     	; 0x244 <_ZN5Input4ReadEv+0x26>
     226:	94 34       	cpi	r25, 0x44	; 68
     228:	c1 f0       	breq	.+48     	; 0x25a <_ZN5Input4ReadEv+0x3c>
     22a:	92 34       	cpi	r25, 0x42	; 66
     22c:	19 f5       	brne	.+70     	; 0x274 <_ZN5Input4ReadEv+0x56>
		case 'B': read_pin = ((1 << _pin) & PINB); break;
     22e:	26 b3       	in	r18, 0x16	; 22
     230:	30 e0       	ldi	r19, 0x00	; 0
     232:	c9 01       	movw	r24, r18
     234:	01 80       	ldd	r0, Z+1	; 0x01
     236:	02 c0       	rjmp	.+4      	; 0x23c <_ZN5Input4ReadEv+0x1e>
     238:	95 95       	asr	r25
     23a:	87 95       	ror	r24
     23c:	0a 94       	dec	r0
     23e:	e2 f7       	brpl	.-8      	; 0x238 <_ZN5Input4ReadEv+0x1a>
     240:	81 70       	andi	r24, 0x01	; 1
     242:	15 c0       	rjmp	.+42     	; 0x26e <_ZN5Input4ReadEv+0x50>
		case 'C': read_pin = ((1 << _pin) & PINC); break;
     244:	23 b3       	in	r18, 0x13	; 19
     246:	30 e0       	ldi	r19, 0x00	; 0
     248:	c9 01       	movw	r24, r18
     24a:	01 80       	ldd	r0, Z+1	; 0x01
     24c:	02 c0       	rjmp	.+4      	; 0x252 <_ZN5Input4ReadEv+0x34>
     24e:	95 95       	asr	r25
     250:	87 95       	ror	r24
     252:	0a 94       	dec	r0
     254:	e2 f7       	brpl	.-8      	; 0x24e <_ZN5Input4ReadEv+0x30>
     256:	81 70       	andi	r24, 0x01	; 1
     258:	0a c0       	rjmp	.+20     	; 0x26e <_ZN5Input4ReadEv+0x50>
		case 'D': read_pin = ((1 << _pin) & PIND); break;
     25a:	20 b3       	in	r18, 0x10	; 16
     25c:	30 e0       	ldi	r19, 0x00	; 0
     25e:	c9 01       	movw	r24, r18
     260:	01 80       	ldd	r0, Z+1	; 0x01
     262:	02 c0       	rjmp	.+4      	; 0x268 <_ZN5Input4ReadEv+0x4a>
     264:	95 95       	asr	r25
     266:	87 95       	ror	r24
     268:	0a 94       	dec	r0
     26a:	e2 f7       	brpl	.-8      	; 0x264 <_ZN5Input4ReadEv+0x46>
     26c:	81 70       	andi	r24, 0x01	; 1
		default: return false;
	}
	if (!read_pin){
     26e:	91 e0       	ldi	r25, 0x01	; 1
     270:	89 27       	eor	r24, r25
     272:	08 95       	ret
	bool read_pin;
	switch (_port){
		case 'B': read_pin = ((1 << _pin) & PINB); break;
		case 'C': read_pin = ((1 << _pin) & PINC); break;
		case 'D': read_pin = ((1 << _pin) & PIND); break;
		default: return false;
     274:	80 e0       	ldi	r24, 0x00	; 0
	}
	if (!read_pin){
		return true;
		}else{return false;}
     276:	08 95       	ret

00000278 <_Z8SPI_initv>:
		n /= 10;
	} while (n);
	if (ng) {
		Send_SPI(i+1, 0xA); //символ -
	}
}
     278:	84 b3       	in	r24, 0x14	; 20
     27a:	88 63       	ori	r24, 0x38	; 56
     27c:	84 bb       	out	0x14, r24	; 20
     27e:	85 b3       	in	r24, 0x15	; 21
     280:	87 7c       	andi	r24, 0xC7	; 199
     282:	85 bb       	out	0x15, r24	; 21
     284:	08 95       	ret

00000286 <_Z20SPI_SendByte_SHD0032c>:
     286:	ab 9a       	sbi	0x15, 3	; 21
     288:	92 e0       	ldi	r25, 0x02	; 2
     28a:	9a 95       	dec	r25
     28c:	f1 f7       	brne	.-4      	; 0x28a <_Z20SPI_SendByte_SHD0032c+0x4>
     28e:	00 c0       	rjmp	.+0      	; 0x290 <_Z20SPI_SendByte_SHD0032c+0xa>
     290:	88 23       	and	r24, r24
     292:	14 f4       	brge	.+4      	; 0x298 <_Z20SPI_SendByte_SHD0032c+0x12>
     294:	ac 9a       	sbi	0x15, 4	; 21
     296:	01 c0       	rjmp	.+2      	; 0x29a <_Z20SPI_SendByte_SHD0032c+0x14>
     298:	ac 98       	cbi	0x15, 4	; 21
     29a:	92 e0       	ldi	r25, 0x02	; 2
     29c:	9a 95       	dec	r25
     29e:	f1 f7       	brne	.-4      	; 0x29c <_Z20SPI_SendByte_SHD0032c+0x16>
     2a0:	00 c0       	rjmp	.+0      	; 0x2a2 <_Z20SPI_SendByte_SHD0032c+0x1c>
     2a2:	ab 98       	cbi	0x15, 3	; 21
     2a4:	95 e0       	ldi	r25, 0x05	; 5
     2a6:	9a 95       	dec	r25
     2a8:	f1 f7       	brne	.-4      	; 0x2a6 <_Z20SPI_SendByte_SHD0032c+0x20>
     2aa:	00 00       	nop
     2ac:	ab 9a       	sbi	0x15, 3	; 21
     2ae:	92 e0       	ldi	r25, 0x02	; 2
     2b0:	9a 95       	dec	r25
     2b2:	f1 f7       	brne	.-4      	; 0x2b0 <_Z20SPI_SendByte_SHD0032c+0x2a>
     2b4:	00 c0       	rjmp	.+0      	; 0x2b6 <_Z20SPI_SendByte_SHD0032c+0x30>
     2b6:	86 ff       	sbrs	r24, 6
     2b8:	02 c0       	rjmp	.+4      	; 0x2be <_Z20SPI_SendByte_SHD0032c+0x38>
     2ba:	ac 9a       	sbi	0x15, 4	; 21
     2bc:	01 c0       	rjmp	.+2      	; 0x2c0 <_Z20SPI_SendByte_SHD0032c+0x3a>
     2be:	ac 98       	cbi	0x15, 4	; 21
     2c0:	92 e0       	ldi	r25, 0x02	; 2
     2c2:	9a 95       	dec	r25
     2c4:	f1 f7       	brne	.-4      	; 0x2c2 <_Z20SPI_SendByte_SHD0032c+0x3c>
     2c6:	00 c0       	rjmp	.+0      	; 0x2c8 <_Z20SPI_SendByte_SHD0032c+0x42>
     2c8:	ab 98       	cbi	0x15, 3	; 21
     2ca:	95 e0       	ldi	r25, 0x05	; 5
     2cc:	9a 95       	dec	r25
     2ce:	f1 f7       	brne	.-4      	; 0x2cc <_Z20SPI_SendByte_SHD0032c+0x46>
     2d0:	00 00       	nop
     2d2:	ab 9a       	sbi	0x15, 3	; 21
     2d4:	92 e0       	ldi	r25, 0x02	; 2
     2d6:	9a 95       	dec	r25
     2d8:	f1 f7       	brne	.-4      	; 0x2d6 <_Z20SPI_SendByte_SHD0032c+0x50>
     2da:	00 c0       	rjmp	.+0      	; 0x2dc <_Z20SPI_SendByte_SHD0032c+0x56>
     2dc:	85 ff       	sbrs	r24, 5
     2de:	02 c0       	rjmp	.+4      	; 0x2e4 <_Z20SPI_SendByte_SHD0032c+0x5e>
     2e0:	ac 9a       	sbi	0x15, 4	; 21
     2e2:	01 c0       	rjmp	.+2      	; 0x2e6 <_Z20SPI_SendByte_SHD0032c+0x60>
     2e4:	ac 98       	cbi	0x15, 4	; 21
     2e6:	92 e0       	ldi	r25, 0x02	; 2
     2e8:	9a 95       	dec	r25
     2ea:	f1 f7       	brne	.-4      	; 0x2e8 <_Z20SPI_SendByte_SHD0032c+0x62>
     2ec:	00 c0       	rjmp	.+0      	; 0x2ee <_Z20SPI_SendByte_SHD0032c+0x68>
     2ee:	ab 98       	cbi	0x15, 3	; 21
     2f0:	95 e0       	ldi	r25, 0x05	; 5
     2f2:	9a 95       	dec	r25
     2f4:	f1 f7       	brne	.-4      	; 0x2f2 <_Z20SPI_SendByte_SHD0032c+0x6c>
     2f6:	00 00       	nop
     2f8:	ab 9a       	sbi	0x15, 3	; 21
     2fa:	92 e0       	ldi	r25, 0x02	; 2
     2fc:	9a 95       	dec	r25
     2fe:	f1 f7       	brne	.-4      	; 0x2fc <_Z20SPI_SendByte_SHD0032c+0x76>
     300:	00 c0       	rjmp	.+0      	; 0x302 <_Z20SPI_SendByte_SHD0032c+0x7c>
     302:	84 ff       	sbrs	r24, 4
     304:	02 c0       	rjmp	.+4      	; 0x30a <_Z20SPI_SendByte_SHD0032c+0x84>
     306:	ac 9a       	sbi	0x15, 4	; 21
     308:	01 c0       	rjmp	.+2      	; 0x30c <_Z20SPI_SendByte_SHD0032c+0x86>
     30a:	ac 98       	cbi	0x15, 4	; 21
     30c:	92 e0       	ldi	r25, 0x02	; 2
     30e:	9a 95       	dec	r25
     310:	f1 f7       	brne	.-4      	; 0x30e <_Z20SPI_SendByte_SHD0032c+0x88>
     312:	00 c0       	rjmp	.+0      	; 0x314 <_Z20SPI_SendByte_SHD0032c+0x8e>
     314:	ab 98       	cbi	0x15, 3	; 21
     316:	95 e0       	ldi	r25, 0x05	; 5
     318:	9a 95       	dec	r25
     31a:	f1 f7       	brne	.-4      	; 0x318 <_Z20SPI_SendByte_SHD0032c+0x92>
     31c:	00 00       	nop
     31e:	ab 9a       	sbi	0x15, 3	; 21
     320:	92 e0       	ldi	r25, 0x02	; 2
     322:	9a 95       	dec	r25
     324:	f1 f7       	brne	.-4      	; 0x322 <_Z20SPI_SendByte_SHD0032c+0x9c>
     326:	00 c0       	rjmp	.+0      	; 0x328 <_Z20SPI_SendByte_SHD0032c+0xa2>
     328:	83 ff       	sbrs	r24, 3
     32a:	02 c0       	rjmp	.+4      	; 0x330 <_Z20SPI_SendByte_SHD0032c+0xaa>
     32c:	ac 9a       	sbi	0x15, 4	; 21
     32e:	01 c0       	rjmp	.+2      	; 0x332 <_Z20SPI_SendByte_SHD0032c+0xac>
     330:	ac 98       	cbi	0x15, 4	; 21
     332:	92 e0       	ldi	r25, 0x02	; 2
     334:	9a 95       	dec	r25
     336:	f1 f7       	brne	.-4      	; 0x334 <_Z20SPI_SendByte_SHD0032c+0xae>
     338:	00 c0       	rjmp	.+0      	; 0x33a <_Z20SPI_SendByte_SHD0032c+0xb4>
     33a:	ab 98       	cbi	0x15, 3	; 21
     33c:	95 e0       	ldi	r25, 0x05	; 5
     33e:	9a 95       	dec	r25
     340:	f1 f7       	brne	.-4      	; 0x33e <_Z20SPI_SendByte_SHD0032c+0xb8>
     342:	00 00       	nop
     344:	ab 9a       	sbi	0x15, 3	; 21
     346:	92 e0       	ldi	r25, 0x02	; 2
     348:	9a 95       	dec	r25
     34a:	f1 f7       	brne	.-4      	; 0x348 <_Z20SPI_SendByte_SHD0032c+0xc2>
     34c:	00 c0       	rjmp	.+0      	; 0x34e <_Z20SPI_SendByte_SHD0032c+0xc8>
     34e:	82 ff       	sbrs	r24, 2
     350:	02 c0       	rjmp	.+4      	; 0x356 <_Z20SPI_SendByte_SHD0032c+0xd0>
     352:	ac 9a       	sbi	0x15, 4	; 21
     354:	01 c0       	rjmp	.+2      	; 0x358 <_Z20SPI_SendByte_SHD0032c+0xd2>
     356:	ac 98       	cbi	0x15, 4	; 21
     358:	92 e0       	ldi	r25, 0x02	; 2
     35a:	9a 95       	dec	r25
     35c:	f1 f7       	brne	.-4      	; 0x35a <_Z20SPI_SendByte_SHD0032c+0xd4>
     35e:	00 c0       	rjmp	.+0      	; 0x360 <_Z20SPI_SendByte_SHD0032c+0xda>
     360:	ab 98       	cbi	0x15, 3	; 21
     362:	95 e0       	ldi	r25, 0x05	; 5
     364:	9a 95       	dec	r25
     366:	f1 f7       	brne	.-4      	; 0x364 <_Z20SPI_SendByte_SHD0032c+0xde>
     368:	00 00       	nop
     36a:	ab 9a       	sbi	0x15, 3	; 21
     36c:	92 e0       	ldi	r25, 0x02	; 2
     36e:	9a 95       	dec	r25
     370:	f1 f7       	brne	.-4      	; 0x36e <_Z20SPI_SendByte_SHD0032c+0xe8>
     372:	00 c0       	rjmp	.+0      	; 0x374 <_Z20SPI_SendByte_SHD0032c+0xee>
     374:	81 ff       	sbrs	r24, 1
     376:	02 c0       	rjmp	.+4      	; 0x37c <_Z20SPI_SendByte_SHD0032c+0xf6>
     378:	ac 9a       	sbi	0x15, 4	; 21
     37a:	01 c0       	rjmp	.+2      	; 0x37e <_Z20SPI_SendByte_SHD0032c+0xf8>
     37c:	ac 98       	cbi	0x15, 4	; 21
     37e:	92 e0       	ldi	r25, 0x02	; 2
     380:	9a 95       	dec	r25
     382:	f1 f7       	brne	.-4      	; 0x380 <_Z20SPI_SendByte_SHD0032c+0xfa>
     384:	00 c0       	rjmp	.+0      	; 0x386 <_Z20SPI_SendByte_SHD0032c+0x100>
     386:	ab 98       	cbi	0x15, 3	; 21
     388:	95 e0       	ldi	r25, 0x05	; 5
     38a:	9a 95       	dec	r25
     38c:	f1 f7       	brne	.-4      	; 0x38a <_Z20SPI_SendByte_SHD0032c+0x104>
     38e:	00 00       	nop
     390:	ab 9a       	sbi	0x15, 3	; 21
     392:	92 e0       	ldi	r25, 0x02	; 2
     394:	9a 95       	dec	r25
     396:	f1 f7       	brne	.-4      	; 0x394 <_Z20SPI_SendByte_SHD0032c+0x10e>
     398:	00 c0       	rjmp	.+0      	; 0x39a <_Z20SPI_SendByte_SHD0032c+0x114>
     39a:	80 ff       	sbrs	r24, 0
     39c:	02 c0       	rjmp	.+4      	; 0x3a2 <_Z20SPI_SendByte_SHD0032c+0x11c>
     39e:	ac 9a       	sbi	0x15, 4	; 21
     3a0:	01 c0       	rjmp	.+2      	; 0x3a4 <_Z20SPI_SendByte_SHD0032c+0x11e>
     3a2:	ac 98       	cbi	0x15, 4	; 21
     3a4:	82 e0       	ldi	r24, 0x02	; 2
     3a6:	8a 95       	dec	r24
     3a8:	f1 f7       	brne	.-4      	; 0x3a6 <_Z20SPI_SendByte_SHD0032c+0x120>
     3aa:	00 c0       	rjmp	.+0      	; 0x3ac <_Z20SPI_SendByte_SHD0032c+0x126>
     3ac:	ab 98       	cbi	0x15, 3	; 21
     3ae:	95 e0       	ldi	r25, 0x05	; 5
     3b0:	9a 95       	dec	r25
     3b2:	f1 f7       	brne	.-4      	; 0x3b0 <_Z20SPI_SendByte_SHD0032c+0x12a>
     3b4:	00 00       	nop
     3b6:	ab 98       	cbi	0x15, 3	; 21
     3b8:	08 95       	ret

000003ba <_Z16Send_SPI_SHD0032cccc>:
     3ba:	1f 93       	push	r17
     3bc:	cf 93       	push	r28
     3be:	df 93       	push	r29
     3c0:	16 2f       	mov	r17, r22
     3c2:	d4 2f       	mov	r29, r20
     3c4:	c2 2f       	mov	r28, r18
     3c6:	ad 98       	cbi	0x15, 5	; 21
     3c8:	ac 98       	cbi	0x15, 4	; 21
     3ca:	5d df       	rcall	.-326    	; 0x286 <_Z20SPI_SendByte_SHD0032c>
     3cc:	81 2f       	mov	r24, r17
     3ce:	5b df       	rcall	.-330    	; 0x286 <_Z20SPI_SendByte_SHD0032c>
     3d0:	8d 2f       	mov	r24, r29
     3d2:	59 df       	rcall	.-334    	; 0x286 <_Z20SPI_SendByte_SHD0032c>
     3d4:	8c 2f       	mov	r24, r28
     3d6:	57 df       	rcall	.-338    	; 0x286 <_Z20SPI_SendByte_SHD0032c>
     3d8:	ac 98       	cbi	0x15, 4	; 21
     3da:	ad 9a       	sbi	0x15, 5	; 21
     3dc:	8d e0       	ldi	r24, 0x0D	; 13
     3de:	8a 95       	dec	r24
     3e0:	f1 f7       	brne	.-4      	; 0x3de <_Z16Send_SPI_SHD0032cccc+0x24>
     3e2:	00 00       	nop
     3e4:	ad 98       	cbi	0x15, 5	; 21
     3e6:	df 91       	pop	r29
     3e8:	cf 91       	pop	r28
     3ea:	1f 91       	pop	r17
     3ec:	08 95       	ret

000003ee <_Z8SHD0032Gl>:
     3ee:	cf 93       	push	r28
     3f0:	df 93       	push	r29
     3f2:	00 d0       	rcall	.+0      	; 0x3f4 <_Z8SHD0032Gl+0x6>
     3f4:	00 d0       	rcall	.+0      	; 0x3f6 <_Z8SHD0032Gl+0x8>
     3f6:	cd b7       	in	r28, 0x3d	; 61
     3f8:	de b7       	in	r29, 0x3e	; 62
     3fa:	69 83       	std	Y+1, r22	; 0x01
     3fc:	7a 83       	std	Y+2, r23	; 0x02
     3fe:	8b 83       	std	Y+3, r24	; 0x03
     400:	9c 83       	std	Y+4, r25	; 0x04
     402:	89 81       	ldd	r24, Y+1	; 0x01
     404:	9a 81       	ldd	r25, Y+2	; 0x02
     406:	ab 81       	ldd	r26, Y+3	; 0x03
     408:	bc 81       	ldd	r27, Y+4	; 0x04
     40a:	8a 30       	cpi	r24, 0x0A	; 10
     40c:	91 05       	cpc	r25, r1
     40e:	b8 f4       	brcc	.+46     	; 0x43e <__LOCK_REGION_LENGTH__+0x3e>
     410:	fc 01       	movw	r30, r24
     412:	ed 5e       	subi	r30, 0xED	; 237
     414:	ff 4f       	sbci	r31, 0xFF	; 255
     416:	09 94       	ijmp
     418:	2e e7       	ldi	r18, 0x7E	; 126
     41a:	11 c0       	rjmp	.+34     	; 0x43e <__LOCK_REGION_LENGTH__+0x3e>
     41c:	2c e0       	ldi	r18, 0x0C	; 12
     41e:	0f c0       	rjmp	.+30     	; 0x43e <__LOCK_REGION_LENGTH__+0x3e>
     420:	26 eb       	ldi	r18, 0xB6	; 182
     422:	0d c0       	rjmp	.+26     	; 0x43e <__LOCK_REGION_LENGTH__+0x3e>
     424:	2e e9       	ldi	r18, 0x9E	; 158
     426:	0b c0       	rjmp	.+22     	; 0x43e <__LOCK_REGION_LENGTH__+0x3e>
     428:	2c ec       	ldi	r18, 0xCC	; 204
     42a:	09 c0       	rjmp	.+18     	; 0x43e <__LOCK_REGION_LENGTH__+0x3e>
     42c:	2a ed       	ldi	r18, 0xDA	; 218
     42e:	07 c0       	rjmp	.+14     	; 0x43e <__LOCK_REGION_LENGTH__+0x3e>
     430:	2a ef       	ldi	r18, 0xFA	; 250
     432:	05 c0       	rjmp	.+10     	; 0x43e <__LOCK_REGION_LENGTH__+0x3e>
     434:	2e e0       	ldi	r18, 0x0E	; 14
     436:	03 c0       	rjmp	.+6      	; 0x43e <__LOCK_REGION_LENGTH__+0x3e>
     438:	2e ef       	ldi	r18, 0xFE	; 254
     43a:	01 c0       	rjmp	.+2      	; 0x43e <__LOCK_REGION_LENGTH__+0x3e>
     43c:	2e ed       	ldi	r18, 0xDE	; 222
     43e:	82 2f       	mov	r24, r18
     440:	0f 90       	pop	r0
     442:	0f 90       	pop	r0
     444:	0f 90       	pop	r0
     446:	0f 90       	pop	r0
     448:	df 91       	pop	r29
     44a:	cf 91       	pop	r28
     44c:	08 95       	ret

0000044e <_Z15LED_DisplaySendli>:

void LED_DisplaySend(volatile long n, int point){
     44e:	3f 92       	push	r3
     450:	4f 92       	push	r4
     452:	5f 92       	push	r5
     454:	6f 92       	push	r6
     456:	7f 92       	push	r7
     458:	8f 92       	push	r8
     45a:	9f 92       	push	r9
     45c:	af 92       	push	r10
     45e:	bf 92       	push	r11
     460:	cf 92       	push	r12
     462:	df 92       	push	r13
     464:	ef 92       	push	r14
     466:	ff 92       	push	r15
     468:	0f 93       	push	r16
     46a:	1f 93       	push	r17
     46c:	cf 93       	push	r28
     46e:	df 93       	push	r29
     470:	cd b7       	in	r28, 0x3d	; 61
     472:	de b7       	in	r29, 0x3e	; 62
     474:	28 97       	sbiw	r28, 0x08	; 8
     476:	0f b6       	in	r0, 0x3f	; 63
     478:	f8 94       	cli
     47a:	de bf       	out	0x3e, r29	; 62
     47c:	0f be       	out	0x3f, r0	; 63
     47e:	cd bf       	out	0x3d, r28	; 61
     480:	69 83       	std	Y+1, r22	; 0x01
     482:	7a 83       	std	Y+2, r23	; 0x02
     484:	8b 83       	std	Y+3, r24	; 0x03
     486:	9c 83       	std	Y+4, r25	; 0x04
     488:	8a 01       	movw	r16, r20
	
	char symbol_1, symbol_2, symbol_3, symbol_4;
	char SHDsymbol_1, SHDsymbol_2, SHDsymbol_3, SHDsymbol_4;
	
	
	if (n == 0) {
     48a:	89 81       	ldd	r24, Y+1	; 0x01
     48c:	9a 81       	ldd	r25, Y+2	; 0x02
     48e:	ab 81       	ldd	r26, Y+3	; 0x03
     490:	bc 81       	ldd	r27, Y+4	; 0x04
     492:	89 2b       	or	r24, r25
     494:	8a 2b       	or	r24, r26
     496:	8b 2b       	or	r24, r27
     498:	49 f4       	brne	.+18     	; 0x4ac <__stack+0x4d>
		SHDsymbol_1 = SHD0032G(0);
     49a:	60 e0       	ldi	r22, 0x00	; 0
     49c:	70 e0       	ldi	r23, 0x00	; 0
     49e:	cb 01       	movw	r24, r22
     4a0:	a6 df       	rcall	.-180    	; 0x3ee <_Z8SHD0032Gl>
		SHDsymbol_2 = 0b00000000;
		SHDsymbol_3 = 0b00000000;
		SHDsymbol_4 = 0b00000000;
		Send_SPI_SHD0032(SHDsymbol_1,SHDsymbol_2,SHDsymbol_3,SHDsymbol_4);
     4a2:	20 e0       	ldi	r18, 0x00	; 0
     4a4:	40 e0       	ldi	r20, 0x00	; 0
     4a6:	60 e0       	ldi	r22, 0x00	; 0
     4a8:	88 df       	rcall	.-240    	; 0x3ba <_Z16Send_SPI_SHD0032cccc>
		return;
     4aa:	98 c0       	rjmp	.+304    	; 0x5dc <__stack+0x17d>
	}
	
	
	symbol_1 = n%10;
     4ac:	69 81       	ldd	r22, Y+1	; 0x01
     4ae:	7a 81       	ldd	r23, Y+2	; 0x02
     4b0:	8b 81       	ldd	r24, Y+3	; 0x03
     4b2:	9c 81       	ldd	r25, Y+4	; 0x04
	symbol_2 = n/10%10;
     4b4:	49 80       	ldd	r4, Y+1	; 0x01
     4b6:	5a 80       	ldd	r5, Y+2	; 0x02
     4b8:	6b 80       	ldd	r6, Y+3	; 0x03
     4ba:	7c 80       	ldd	r7, Y+4	; 0x04
	symbol_3 = n/100%10;
     4bc:	89 80       	ldd	r8, Y+1	; 0x01
     4be:	9a 80       	ldd	r9, Y+2	; 0x02
     4c0:	ab 80       	ldd	r10, Y+3	; 0x03
     4c2:	bc 80       	ldd	r11, Y+4	; 0x04
	symbol_4 = n/1000%10;
     4c4:	29 81       	ldd	r18, Y+1	; 0x01
     4c6:	3a 81       	ldd	r19, Y+2	; 0x02
     4c8:	4b 81       	ldd	r20, Y+3	; 0x03
     4ca:	5c 81       	ldd	r21, Y+4	; 0x04
     4cc:	2d 83       	std	Y+5, r18	; 0x05
     4ce:	3e 83       	std	Y+6, r19	; 0x06
     4d0:	4f 83       	std	Y+7, r20	; 0x07
     4d2:	58 87       	std	Y+8, r21	; 0x08
	
	SHDsymbol_1 = SHD0032G(symbol_1);
     4d4:	0f 2e       	mov	r0, r31
     4d6:	fa e0       	ldi	r31, 0x0A	; 10
     4d8:	cf 2e       	mov	r12, r31
     4da:	d1 2c       	mov	r13, r1
     4dc:	e1 2c       	mov	r14, r1
     4de:	f1 2c       	mov	r15, r1
     4e0:	f0 2d       	mov	r31, r0
     4e2:	a7 01       	movw	r20, r14
     4e4:	96 01       	movw	r18, r12
     4e6:	38 d9       	rcall	.-3472   	; 0xfffff758 <__eeprom_end+0xff7ef758>
     4e8:	77 27       	eor	r23, r23
     4ea:	88 27       	eor	r24, r24
     4ec:	99 27       	eor	r25, r25
     4ee:	7f df       	rcall	.-258    	; 0x3ee <_Z8SHD0032Gl>
     4f0:	38 2e       	mov	r3, r24
	SHDsymbol_2 = SHD0032G(symbol_2);
     4f2:	c3 01       	movw	r24, r6
     4f4:	b2 01       	movw	r22, r4
     4f6:	a7 01       	movw	r20, r14
     4f8:	96 01       	movw	r18, r12
     4fa:	2e d9       	rcall	.-3492   	; 0xfffff758 <__eeprom_end+0xff7ef758>
     4fc:	ca 01       	movw	r24, r20
     4fe:	b9 01       	movw	r22, r18
     500:	a7 01       	movw	r20, r14
     502:	96 01       	movw	r18, r12
     504:	29 d9       	rcall	.-3502   	; 0xfffff758 <__eeprom_end+0xff7ef758>
     506:	77 27       	eor	r23, r23
     508:	88 27       	eor	r24, r24
     50a:	99 27       	eor	r25, r25
     50c:	70 df       	rcall	.-288    	; 0x3ee <_Z8SHD0032Gl>
     50e:	78 2e       	mov	r7, r24
	SHDsymbol_3 = SHD0032G(symbol_3);
     510:	c5 01       	movw	r24, r10
     512:	b4 01       	movw	r22, r8
     514:	24 e6       	ldi	r18, 0x64	; 100
     516:	30 e0       	ldi	r19, 0x00	; 0
     518:	40 e0       	ldi	r20, 0x00	; 0
     51a:	50 e0       	ldi	r21, 0x00	; 0
     51c:	1d d9       	rcall	.-3526   	; 0xfffff758 <__eeprom_end+0xff7ef758>
     51e:	ca 01       	movw	r24, r20
     520:	b9 01       	movw	r22, r18
     522:	a7 01       	movw	r20, r14
     524:	96 01       	movw	r18, r12
     526:	18 d9       	rcall	.-3536   	; 0xfffff758 <__eeprom_end+0xff7ef758>
     528:	77 27       	eor	r23, r23
     52a:	88 27       	eor	r24, r24
     52c:	99 27       	eor	r25, r25
     52e:	5f df       	rcall	.-322    	; 0x3ee <_Z8SHD0032Gl>
     530:	b8 2e       	mov	r11, r24
	SHDsymbol_4 = SHD0032G(symbol_4);
     532:	6d 81       	ldd	r22, Y+5	; 0x05
     534:	7e 81       	ldd	r23, Y+6	; 0x06
     536:	8f 81       	ldd	r24, Y+7	; 0x07
     538:	98 85       	ldd	r25, Y+8	; 0x08
     53a:	28 ee       	ldi	r18, 0xE8	; 232
     53c:	33 e0       	ldi	r19, 0x03	; 3
     53e:	40 e0       	ldi	r20, 0x00	; 0
     540:	50 e0       	ldi	r21, 0x00	; 0
     542:	0a d9       	rcall	.-3564   	; 0xfffff758 <__eeprom_end+0xff7ef758>
     544:	ca 01       	movw	r24, r20
     546:	b9 01       	movw	r22, r18
     548:	a7 01       	movw	r20, r14
     54a:	96 01       	movw	r18, r12
     54c:	05 d9       	rcall	.-3574   	; 0xfffff758 <__eeprom_end+0xff7ef758>
     54e:	77 27       	eor	r23, r23
     550:	88 27       	eor	r24, r24
     552:	99 27       	eor	r25, r25
     554:	4c df       	rcall	.-360    	; 0x3ee <_Z8SHD0032Gl>
	

	
	if(n<1000){SHDsymbol_4 = 0b00000000;}
     556:	49 81       	ldd	r20, Y+1	; 0x01
     558:	5a 81       	ldd	r21, Y+2	; 0x02
     55a:	6b 81       	ldd	r22, Y+3	; 0x03
     55c:	7c 81       	ldd	r23, Y+4	; 0x04
     55e:	48 3e       	cpi	r20, 0xE8	; 232
     560:	53 40       	sbci	r21, 0x03	; 3
     562:	61 05       	cpc	r22, r1
     564:	71 05       	cpc	r23, r1
     566:	0c f4       	brge	.+2      	; 0x56a <__stack+0x10b>
     568:	80 e0       	ldi	r24, 0x00	; 0
	if(n<100 ){SHDsymbol_3 = 0b00000000;}
     56a:	49 81       	ldd	r20, Y+1	; 0x01
     56c:	5a 81       	ldd	r21, Y+2	; 0x02
     56e:	6b 81       	ldd	r22, Y+3	; 0x03
     570:	7c 81       	ldd	r23, Y+4	; 0x04
     572:	44 36       	cpi	r20, 0x64	; 100
     574:	51 05       	cpc	r21, r1
     576:	61 05       	cpc	r22, r1
     578:	71 05       	cpc	r23, r1
     57a:	0c f4       	brge	.+2      	; 0x57e <__stack+0x11f>
     57c:	b1 2c       	mov	r11, r1
	if(n<10&&point==0){SHDsymbol_2 = 0b00000000;}
     57e:	49 81       	ldd	r20, Y+1	; 0x01
     580:	5a 81       	ldd	r21, Y+2	; 0x02
     582:	6b 81       	ldd	r22, Y+3	; 0x03
     584:	7c 81       	ldd	r23, Y+4	; 0x04
     586:	4a 30       	cpi	r20, 0x0A	; 10
     588:	51 05       	cpc	r21, r1
     58a:	61 05       	cpc	r22, r1
     58c:	71 05       	cpc	r23, r1
     58e:	1c f4       	brge	.+6      	; 0x596 <__stack+0x137>
     590:	01 15       	cp	r16, r1
     592:	11 05       	cpc	r17, r1
     594:	e9 f0       	breq	.+58     	; 0x5d0 <__stack+0x171>
	
	
	switch(point){
     596:	02 30       	cpi	r16, 0x02	; 2
     598:	11 05       	cpc	r17, r1
     59a:	81 f0       	breq	.+32     	; 0x5bc <__stack+0x15d>
     59c:	24 f4       	brge	.+8      	; 0x5a6 <__stack+0x147>
     59e:	01 30       	cpi	r16, 0x01	; 1
     5a0:	11 05       	cpc	r17, r1
     5a2:	41 f0       	breq	.+16     	; 0x5b4 <__stack+0x155>
     5a4:	16 c0       	rjmp	.+44     	; 0x5d2 <__stack+0x173>
     5a6:	03 30       	cpi	r16, 0x03	; 3
     5a8:	11 05       	cpc	r17, r1
     5aa:	61 f0       	breq	.+24     	; 0x5c4 <__stack+0x165>
     5ac:	04 30       	cpi	r16, 0x04	; 4
     5ae:	11 05       	cpc	r17, r1
     5b0:	69 f0       	breq	.+26     	; 0x5cc <__stack+0x16d>
     5b2:	0f c0       	rjmp	.+30     	; 0x5d2 <__stack+0x173>
		case 1: SHDsymbol_1 |=(1<<0);break;
     5b4:	43 2d       	mov	r20, r3
     5b6:	41 60       	ori	r20, 0x01	; 1
     5b8:	34 2e       	mov	r3, r20
     5ba:	0b c0       	rjmp	.+22     	; 0x5d2 <__stack+0x173>
		case 2: SHDsymbol_2 |=(1<<0);break;
     5bc:	57 2d       	mov	r21, r7
     5be:	51 60       	ori	r21, 0x01	; 1
     5c0:	75 2e       	mov	r7, r21
     5c2:	07 c0       	rjmp	.+14     	; 0x5d2 <__stack+0x173>
		case 3: SHDsymbol_3 |=(1<<0);break;
     5c4:	9b 2d       	mov	r25, r11
     5c6:	91 60       	ori	r25, 0x01	; 1
     5c8:	b9 2e       	mov	r11, r25
     5ca:	03 c0       	rjmp	.+6      	; 0x5d2 <__stack+0x173>
		case 4: SHDsymbol_4 |=(1<<0);break;
     5cc:	81 60       	ori	r24, 0x01	; 1
     5ce:	01 c0       	rjmp	.+2      	; 0x5d2 <__stack+0x173>
	

	
	if(n<1000){SHDsymbol_4 = 0b00000000;}
	if(n<100 ){SHDsymbol_3 = 0b00000000;}
	if(n<10&&point==0){SHDsymbol_2 = 0b00000000;}
     5d0:	71 2c       	mov	r7, r1
		case 2: SHDsymbol_2 |=(1<<0);break;
		case 3: SHDsymbol_3 |=(1<<0);break;
		case 4: SHDsymbol_4 |=(1<<0);break;
	}
	
	Send_SPI_SHD0032(SHDsymbol_1,SHDsymbol_2,SHDsymbol_3,SHDsymbol_4); 
     5d2:	28 2f       	mov	r18, r24
     5d4:	4b 2d       	mov	r20, r11
     5d6:	67 2d       	mov	r22, r7
     5d8:	83 2d       	mov	r24, r3
     5da:	ef de       	rcall	.-546    	; 0x3ba <_Z16Send_SPI_SHD0032cccc>
	
	}
     5dc:	28 96       	adiw	r28, 0x08	; 8
     5de:	0f b6       	in	r0, 0x3f	; 63
     5e0:	f8 94       	cli
     5e2:	de bf       	out	0x3e, r29	; 62
     5e4:	0f be       	out	0x3f, r0	; 63
     5e6:	cd bf       	out	0x3d, r28	; 61
     5e8:	df 91       	pop	r29
     5ea:	cf 91       	pop	r28
     5ec:	1f 91       	pop	r17
     5ee:	0f 91       	pop	r16
     5f0:	ff 90       	pop	r15
     5f2:	ef 90       	pop	r14
     5f4:	df 90       	pop	r13
     5f6:	cf 90       	pop	r12
     5f8:	bf 90       	pop	r11
     5fa:	af 90       	pop	r10
     5fc:	9f 90       	pop	r9
     5fe:	8f 90       	pop	r8
     600:	7f 90       	pop	r7
     602:	6f 90       	pop	r6
     604:	5f 90       	pop	r5
     606:	4f 90       	pop	r4
     608:	3f 90       	pop	r3
     60a:	08 95       	ret

0000060c <_Z18LED_DisplayTime_msl>:


void LED_DisplayTime_ms(volatile long n)
{
     60c:	cf 93       	push	r28
     60e:	df 93       	push	r29
     610:	00 d0       	rcall	.+0      	; 0x612 <_Z18LED_DisplayTime_msl+0x6>
     612:	00 d0       	rcall	.+0      	; 0x614 <_Z18LED_DisplayTime_msl+0x8>
     614:	cd b7       	in	r28, 0x3d	; 61
     616:	de b7       	in	r29, 0x3e	; 62
     618:	69 83       	std	Y+1, r22	; 0x01
     61a:	7a 83       	std	Y+2, r23	; 0x02
     61c:	8b 83       	std	Y+3, r24	; 0x03
     61e:	9c 83       	std	Y+4, r25	; 0x04
	LED_DisplaySend(n/100, 1);
     620:	69 81       	ldd	r22, Y+1	; 0x01
     622:	7a 81       	ldd	r23, Y+2	; 0x02
     624:	8b 81       	ldd	r24, Y+3	; 0x03
     626:	9c 81       	ldd	r25, Y+4	; 0x04
     628:	24 e6       	ldi	r18, 0x64	; 100
     62a:	30 e0       	ldi	r19, 0x00	; 0
     62c:	40 e0       	ldi	r20, 0x00	; 0
     62e:	50 e0       	ldi	r21, 0x00	; 0
     630:	93 d8       	rcall	.-3802   	; 0xfffff758 <__eeprom_end+0xff7ef758>
     632:	ca 01       	movw	r24, r20
     634:	b9 01       	movw	r22, r18
     636:	41 e0       	ldi	r20, 0x01	; 1
     638:	50 e0       	ldi	r21, 0x00	; 0
     63a:	09 df       	rcall	.-494    	; 0x44e <_Z15LED_DisplaySendli>
}
     63c:	0f 90       	pop	r0
     63e:	0f 90       	pop	r0
     640:	0f 90       	pop	r0
     642:	0f 90       	pop	r0
     644:	df 91       	pop	r29
     646:	cf 91       	pop	r28
     648:	08 95       	ret

0000064a <_Z13DidplayFeqSetv>:

void DidplayFeqSet(){
	if(ModeFeq){
     64a:	80 91 e0 00 	lds	r24, 0x00E0	; 0x8000e0 <ModeFeq>
     64e:	88 23       	and	r24, r24
     650:	91 f0       	breq	.+36     	; 0x676 <_Z13DidplayFeqSetv+0x2c>
		ModeFeqCount++;
     652:	80 91 de 00 	lds	r24, 0x00DE	; 0x8000de <ModeFeqCount>
     656:	90 91 df 00 	lds	r25, 0x00DF	; 0x8000df <ModeFeqCount+0x1>
     65a:	01 96       	adiw	r24, 0x01	; 1
     65c:	90 93 df 00 	sts	0x00DF, r25	; 0x8000df <ModeFeqCount+0x1>
     660:	80 93 de 00 	sts	0x00DE, r24	; 0x8000de <ModeFeqCount>
		if(ModeFeqCount>10000){
     664:	81 31       	cpi	r24, 0x11	; 17
     666:	97 42       	sbci	r25, 0x27	; 39
     668:	34 f0       	brlt	.+12     	; 0x676 <_Z13DidplayFeqSetv+0x2c>
			ModeFeq=false;
     66a:	10 92 e0 00 	sts	0x00E0, r1	; 0x8000e0 <ModeFeq>
			ModeFeqCount = 0;
     66e:	10 92 df 00 	sts	0x00DF, r1	; 0x8000df <ModeFeqCount+0x1>
     672:	10 92 de 00 	sts	0x00DE, r1	; 0x8000de <ModeFeqCount>
     676:	08 95       	ret

00000678 <_Z14SendInfDisplayv>:
	}
}


void SendInfDisplay(){
	if (!Mode){
     678:	80 91 e1 00 	lds	r24, 0x00E1	; 0x8000e1 <Mode>
     67c:	81 11       	cpse	r24, r1
     67e:	27 c0       	rjmp	.+78     	; 0x6ce <_Z14SendInfDisplayv+0x56>
		if(!Rotor.RotorStopped()) {
     680:	82 e6       	ldi	r24, 0x62	; 98
     682:	90 e0       	ldi	r25, 0x00	; 0
     684:	a5 d7       	rcall	.+3914   	; 0x15d0 <_ZN5Rotor12RotorStoppedEv>
     686:	81 11       	cpse	r24, r1
     688:	0c c0       	rjmp	.+24     	; 0x6a2 <_Z14SendInfDisplayv+0x2a>
			LED_DisplaySend(Rotor.frequency, 0);
     68a:	60 91 62 00 	lds	r22, 0x0062	; 0x800062 <__data_end>
     68e:	70 91 63 00 	lds	r23, 0x0063	; 0x800063 <__data_end+0x1>
     692:	80 91 64 00 	lds	r24, 0x0064	; 0x800064 <__data_end+0x2>
     696:	90 91 65 00 	lds	r25, 0x0065	; 0x800065 <__data_end+0x3>
     69a:	40 e0       	ldi	r20, 0x00	; 0
     69c:	50 e0       	ldi	r21, 0x00	; 0
     69e:	d7 de       	rcall	.-594    	; 0x44e <_Z15LED_DisplaySendli>
     6a0:	08 95       	ret
			}else{
			if(ModeFeq){
     6a2:	80 91 e0 00 	lds	r24, 0x00E0	; 0x8000e0 <ModeFeq>
     6a6:	88 23       	and	r24, r24
     6a8:	61 f0       	breq	.+24     	; 0x6c2 <_Z14SendInfDisplayv+0x4a>
				LED_DisplaySend(Rotor.frequency, 0);
     6aa:	60 91 62 00 	lds	r22, 0x0062	; 0x800062 <__data_end>
     6ae:	70 91 63 00 	lds	r23, 0x0063	; 0x800063 <__data_end+0x1>
     6b2:	80 91 64 00 	lds	r24, 0x0064	; 0x800064 <__data_end+0x2>
     6b6:	90 91 65 00 	lds	r25, 0x0065	; 0x800065 <__data_end+0x3>
     6ba:	40 e0       	ldi	r20, 0x00	; 0
     6bc:	50 e0       	ldi	r21, 0x00	; 0
     6be:	c7 de       	rcall	.-626    	; 0x44e <_Z15LED_DisplaySendli>
     6c0:	08 95       	ret
				}else{
				LED_DisplaySend(0, 0);
     6c2:	40 e0       	ldi	r20, 0x00	; 0
     6c4:	50 e0       	ldi	r21, 0x00	; 0
     6c6:	60 e0       	ldi	r22, 0x00	; 0
     6c8:	70 e0       	ldi	r23, 0x00	; 0
     6ca:	cb 01       	movw	r24, r22
     6cc:	c0 de       	rcall	.-640    	; 0x44e <_Z15LED_DisplaySendli>
     6ce:	08 95       	ret

000006d0 <_Z9initTimerv>:
#include  "SPI.h"
#include  "Display.h"


void initTimer(){
	TCCR1B |= (1<<WGM12); // устанавливаем режим СТС (сброс по совпадению)
     6d0:	8e b5       	in	r24, 0x2e	; 46
     6d2:	88 60       	ori	r24, 0x08	; 8
     6d4:	8e bd       	out	0x2e, r24	; 46
	TIMSK |= (1<<OCIE1A);	//устанавливаем бит разрешения прерывания 1ого счетчика по совпадению с OCR1A(H и L)
     6d6:	89 b7       	in	r24, 0x39	; 57
     6d8:	80 61       	ori	r24, 0x10	; 16
     6da:	89 bf       	out	0x39, r24	; 57
	TCCR1B |= (1<<CS12);//установим делитель.
     6dc:	8e b5       	in	r24, 0x2e	; 46
     6de:	84 60       	ori	r24, 0x04	; 4
     6e0:	8e bd       	out	0x2e, r24	; 46
	sei();
     6e2:	78 94       	sei
     6e4:	08 95       	ret

000006e6 <__vector_6>:




ISR (TIMER1_COMPA_vect)
{
     6e6:	1f 92       	push	r1
     6e8:	0f 92       	push	r0
     6ea:	0f b6       	in	r0, 0x3f	; 63
     6ec:	0f 92       	push	r0
     6ee:	11 24       	eor	r1, r1
     6f0:	2f 93       	push	r18
     6f2:	3f 93       	push	r19
     6f4:	4f 93       	push	r20
     6f6:	5f 93       	push	r21
     6f8:	6f 93       	push	r22
     6fa:	7f 93       	push	r23
     6fc:	8f 93       	push	r24
     6fe:	9f 93       	push	r25
     700:	af 93       	push	r26
     702:	bf 93       	push	r27
     704:	ef 93       	push	r30
     706:	ff 93       	push	r31
	Rotor.Move();
     708:	82 e6       	ldi	r24, 0x62	; 98
     70a:	90 e0       	ldi	r25, 0x00	; 0
     70c:	d9 d7       	rcall	.+4018   	; 0x16c0 <_ZN5Rotor4MoveEv>
	Rotor.SetFrequency(Rotor.frequency);
     70e:	60 91 62 00 	lds	r22, 0x0062	; 0x800062 <__data_end>
     712:	70 91 63 00 	lds	r23, 0x0063	; 0x800063 <__data_end+0x1>
     716:	82 e6       	ldi	r24, 0x62	; 98
     718:	90 e0       	ldi	r25, 0x00	; 0
     71a:	6f d4       	rcall	.+2270   	; 0xffa <_ZN5Rotor12SetFrequencyEi>
	SendInfDisplay();
     71c:	ad df       	rcall	.-166    	; 0x678 <_Z14SendInfDisplayv>
}
     71e:	ff 91       	pop	r31
     720:	ef 91       	pop	r30
     722:	bf 91       	pop	r27
     724:	af 91       	pop	r26
     726:	9f 91       	pop	r25
     728:	8f 91       	pop	r24
     72a:	7f 91       	pop	r23
     72c:	6f 91       	pop	r22
     72e:	5f 91       	pop	r21
     730:	4f 91       	pop	r20
     732:	3f 91       	pop	r19
     734:	2f 91       	pop	r18
     736:	0f 90       	pop	r0
     738:	0f be       	out	0x3f, r0	; 63
     73a:	0f 90       	pop	r0
     73c:	1f 90       	pop	r1
     73e:	18 95       	reti

00000740 <_Z8PMW_initv>:




void PMW_init(void) {
	DDRB |= (1<<PB3);
     740:	bb 9a       	sbi	0x17, 3	; 23
	PORTB &= ~(1<<PB3);
     742:	c3 98       	cbi	0x18, 3	; 24
	
	TCCR2 |= (1 << COM21) | (1 << WGM21) | (1 << WGM20)| (1 << CS21);
     744:	85 b5       	in	r24, 0x25	; 37
     746:	8a 66       	ori	r24, 0x6A	; 106
     748:	85 bd       	out	0x25, r24	; 37
	TCNT2 = 0x00;
     74a:	14 bc       	out	0x24, r1	; 36
	C_PWM = 0;
     74c:	13 bc       	out	0x23, r1	; 35
     74e:	08 95       	ret

00000750 <_Z4Initv>:


void Init(){
	
	
	Protect.Init('C', 0);
     750:	40 e0       	ldi	r20, 0x00	; 0
     752:	50 e0       	ldi	r21, 0x00	; 0
     754:	63 e4       	ldi	r22, 0x43	; 67
     756:	89 ed       	ldi	r24, 0xD9	; 217
     758:	90 e0       	ldi	r25, 0x00	; 0
     75a:	27 dd       	rcall	.-1458   	; 0x1aa <_ZN5Input4InitEci>
	
	
	ButtonStop.Init('D',0);
     75c:	40 e0       	ldi	r20, 0x00	; 0
     75e:	50 e0       	ldi	r21, 0x00	; 0
     760:	64 e4       	ldi	r22, 0x44	; 68
     762:	8e ec       	ldi	r24, 0xCE	; 206
     764:	90 e0       	ldi	r25, 0x00	; 0
     766:	85 dc       	rcall	.-1782   	; 0x72 <_ZN6Button4InitEci>
	ButtonStart.Init('D',1);
     768:	41 e0       	ldi	r20, 0x01	; 1
     76a:	50 e0       	ldi	r21, 0x00	; 0
     76c:	64 e4       	ldi	r22, 0x44	; 68
     76e:	83 ec       	ldi	r24, 0xC3	; 195
     770:	90 e0       	ldi	r25, 0x00	; 0
     772:	7f dc       	rcall	.-1794   	; 0x72 <_ZN6Button4InitEci>
	ButtonReverse.Init('D',2);
     774:	42 e0       	ldi	r20, 0x02	; 2
     776:	50 e0       	ldi	r21, 0x00	; 0
     778:	64 e4       	ldi	r22, 0x44	; 68
     77a:	88 eb       	ldi	r24, 0xB8	; 184
     77c:	90 e0       	ldi	r25, 0x00	; 0
     77e:	79 dc       	rcall	.-1806   	; 0x72 <_ZN6Button4InitEci>
	ButtonUp.Init('D',4);
     780:	44 e0       	ldi	r20, 0x04	; 4
     782:	50 e0       	ldi	r21, 0x00	; 0
     784:	64 e4       	ldi	r22, 0x44	; 68
     786:	8d ea       	ldi	r24, 0xAD	; 173
     788:	90 e0       	ldi	r25, 0x00	; 0
     78a:	73 dc       	rcall	.-1818   	; 0x72 <_ZN6Button4InitEci>
	ButtonDown.Init('D',3);
     78c:	43 e0       	ldi	r20, 0x03	; 3
     78e:	50 e0       	ldi	r21, 0x00	; 0
     790:	64 e4       	ldi	r22, 0x44	; 68
     792:	82 ea       	ldi	r24, 0xA2	; 162
     794:	90 e0       	ldi	r25, 0x00	; 0
     796:	6d dc       	rcall	.-1830   	; 0x72 <_ZN6Button4InitEci>
	
	Power.Init('C',1, false);
     798:	20 e0       	ldi	r18, 0x00	; 0
     79a:	41 e0       	ldi	r20, 0x01	; 1
     79c:	50 e0       	ldi	r21, 0x00	; 0
     79e:	63 e4       	ldi	r22, 0x43	; 67
     7a0:	8d e9       	ldi	r24, 0x9D	; 157
     7a2:	90 e0       	ldi	r25, 0x00	; 0
     7a4:	f6 d2       	rcall	.+1516   	; 0xd92 <_ZN6Output4InitEcib>
	
	GreenLed.Init('B',6, true);
     7a6:	21 e0       	ldi	r18, 0x01	; 1
     7a8:	46 e0       	ldi	r20, 0x06	; 6
     7aa:	50 e0       	ldi	r21, 0x00	; 0
     7ac:	62 e4       	ldi	r22, 0x42	; 66
     7ae:	88 e9       	ldi	r24, 0x98	; 152
     7b0:	90 e0       	ldi	r25, 0x00	; 0
     7b2:	ef d2       	rcall	.+1502   	; 0xd92 <_ZN6Output4InitEcib>
	RedLed.Init('B',7, true);
     7b4:	21 e0       	ldi	r18, 0x01	; 1
     7b6:	47 e0       	ldi	r20, 0x07	; 7
     7b8:	50 e0       	ldi	r21, 0x00	; 0
     7ba:	62 e4       	ldi	r22, 0x42	; 66
     7bc:	83 e9       	ldi	r24, 0x93	; 147
     7be:	90 e0       	ldi	r25, 0x00	; 0
     7c0:	e8 d2       	rcall	.+1488   	; 0xd92 <_ZN6Output4InitEcib>
	BlueLed.Init('D',5,true);
     7c2:	21 e0       	ldi	r18, 0x01	; 1
     7c4:	45 e0       	ldi	r20, 0x05	; 5
     7c6:	50 e0       	ldi	r21, 0x00	; 0
     7c8:	64 e4       	ldi	r22, 0x44	; 68
     7ca:	8e e8       	ldi	r24, 0x8E	; 142
     7cc:	90 e0       	ldi	r25, 0x00	; 0
     7ce:	e1 d2       	rcall	.+1474   	; 0xd92 <_ZN6Output4InitEcib>
	
	Rotor.Init();
     7d0:	82 e6       	ldi	r24, 0x62	; 98
     7d2:	90 e0       	ldi	r25, 0x00	; 0
     7d4:	7f d4       	rcall	.+2302   	; 0x10d4 <_ZN5Rotor4InitEv>
	
	DDRB |= (1<<(PB0));
     7d6:	b8 9a       	sbi	0x17, 0	; 23
	DDRB |= (1<<(PB1));
     7d8:	b9 9a       	sbi	0x17, 1	; 23
	DDRB |= (1<<(PB2));
     7da:	ba 9a       	sbi	0x17, 2	; 23
	DDRC |= (1<<(PC2));
     7dc:	a2 9a       	sbi	0x14, 2	; 20
	DDRB |= (1<<(PB4));
     7de:	bc 9a       	sbi	0x17, 4	; 23
	DDRB |= (1<<(PB5));
     7e0:	bd 9a       	sbi	0x17, 5	; 23
	
	DDRD |= (1<<(PD7));
     7e2:	8f 9a       	sbi	0x11, 7	; 17
	
	SPI_init();
     7e4:	49 dd       	rcall	.-1390   	; 0x278 <_Z8SPI_initv>
	//LED_Display_Init();
	
	initTimer();
     7e6:	74 df       	rcall	.-280    	; 0x6d0 <_Z9initTimerv>
	PMW_init();
     7e8:	ab df       	rcall	.-170    	; 0x740 <_Z8PMW_initv>
	#else
		//round up by default
		__ticks_dc = (uint32_t)(ceil(fabs(__tmp)));
	#endif

	__builtin_avr_delay_cycles(__ticks_dc);
     7ea:	2f ef       	ldi	r18, 0xFF	; 255
     7ec:	80 e7       	ldi	r24, 0x70	; 112
     7ee:	92 e0       	ldi	r25, 0x02	; 2
     7f0:	21 50       	subi	r18, 0x01	; 1
     7f2:	80 40       	sbci	r24, 0x00	; 0
     7f4:	90 40       	sbci	r25, 0x00	; 0
     7f6:	e1 f7       	brne	.-8      	; 0x7f0 <_Z4Initv+0xa0>
     7f8:	00 c0       	rjmp	.+0      	; 0x7fa <_Z4Initv+0xaa>
     7fa:	00 00       	nop
	_delay_ms(100);
	Power.On();
     7fc:	8d e9       	ldi	r24, 0x9D	; 157
     7fe:	90 e0       	ldi	r25, 0x00	; 0
     800:	9a d3       	rcall	.+1844   	; 0xf36 <_ZN6Output2OnEv>
     802:	08 95       	ret

00000804 <_Z10ReadInputsv>:
}

void ReadInputs(){
	ButtonStop.Scan();
     804:	8e ec       	ldi	r24, 0xCE	; 206
     806:	90 e0       	ldi	r25, 0x00	; 0
     808:	aa dc       	rcall	.-1708   	; 0x15e <_ZN6Button4ScanEv>
	ButtonStart.Scan();
     80a:	83 ec       	ldi	r24, 0xC3	; 195
     80c:	90 e0       	ldi	r25, 0x00	; 0
     80e:	a7 dc       	rcall	.-1714   	; 0x15e <_ZN6Button4ScanEv>
	ButtonReverse.Scan();
     810:	88 eb       	ldi	r24, 0xB8	; 184
     812:	90 e0       	ldi	r25, 0x00	; 0
     814:	a4 dc       	rcall	.-1720   	; 0x15e <_ZN6Button4ScanEv>
	ButtonUp.Scan();
     816:	8d ea       	ldi	r24, 0xAD	; 173
     818:	90 e0       	ldi	r25, 0x00	; 0
     81a:	a1 dc       	rcall	.-1726   	; 0x15e <_ZN6Button4ScanEv>
	ButtonDown.Scan();
     81c:	82 ea       	ldi	r24, 0xA2	; 162
     81e:	90 e0       	ldi	r25, 0x00	; 0
     820:	9e dc       	rcall	.-1732   	; 0x15e <_ZN6Button4ScanEv>
     822:	08 95       	ret

00000824 <_Z13StartControllv>:
#ifndef ROTORCONTROLL_H_
#define ROTORCONTROLL_H_


void StartControll(){
	if (ButtonStart.PressRead()&&!Rotor.Started&&!Protect.Read()){
     824:	83 ec       	ldi	r24, 0xC3	; 195
     826:	90 e0       	ldi	r25, 0x00	; 0
     828:	62 dc       	rcall	.-1852   	; 0xee <_ZN6Button9PressReadEv>
     82a:	88 23       	and	r24, r24
     82c:	61 f0       	breq	.+24     	; 0x846 <_Z13StartControllv+0x22>
     82e:	80 91 7d 00 	lds	r24, 0x007D	; 0x80007d <__data_end+0x1b>
     832:	81 11       	cpse	r24, r1
     834:	08 c0       	rjmp	.+16     	; 0x846 <_Z13StartControllv+0x22>
     836:	89 ed       	ldi	r24, 0xD9	; 217
     838:	90 e0       	ldi	r25, 0x00	; 0
     83a:	f1 dc       	rcall	.-1566   	; 0x21e <_ZN5Input4ReadEv>
     83c:	81 11       	cpse	r24, r1
     83e:	03 c0       	rjmp	.+6      	; 0x846 <_Z13StartControllv+0x22>
		Rotor.Starting = true;
     840:	81 e0       	ldi	r24, 0x01	; 1
     842:	80 93 7a 00 	sts	0x007A, r24	; 0x80007a <__data_end+0x18>
     846:	08 95       	ret

00000848 <_Z12StopControllv>:
	}
}

void StopControll(){
	if (ButtonStop.PressRead()&&!Protect.Read()){
     848:	8e ec       	ldi	r24, 0xCE	; 206
     84a:	90 e0       	ldi	r25, 0x00	; 0
     84c:	50 dc       	rcall	.-1888   	; 0xee <_ZN6Button9PressReadEv>
     84e:	88 23       	and	r24, r24
     850:	41 f0       	breq	.+16     	; 0x862 <_Z12StopControllv+0x1a>
     852:	89 ed       	ldi	r24, 0xD9	; 217
     854:	90 e0       	ldi	r25, 0x00	; 0
     856:	e3 dc       	rcall	.-1594   	; 0x21e <_ZN5Input4ReadEv>
     858:	81 11       	cpse	r24, r1
     85a:	03 c0       	rjmp	.+6      	; 0x862 <_Z12StopControllv+0x1a>
		Rotor.Stoping = true;
     85c:	81 e0       	ldi	r24, 0x01	; 1
     85e:	80 93 7b 00 	sts	0x007B, r24	; 0x80007b <__data_end+0x19>
     862:	08 95       	ret

00000864 <_Z15ReverseControllv>:
	}
}

void ReverseControll(){
	if(ButtonReverse.PressRead()){
     864:	88 eb       	ldi	r24, 0xB8	; 184
     866:	90 e0       	ldi	r25, 0x00	; 0
     868:	42 dc       	rcall	.-1916   	; 0xee <_ZN6Button9PressReadEv>
     86a:	88 23       	and	r24, r24
     86c:	19 f0       	breq	.+6      	; 0x874 <_Z15ReverseControllv+0x10>
		Rotor.Reversing = true;
     86e:	81 e0       	ldi	r24, 0x01	; 1
     870:	80 93 7c 00 	sts	0x007C, r24	; 0x80007c <__data_end+0x1a>
     874:	08 95       	ret

00000876 <_Z13SpeedControllv>:

void SpeedControll(){
	
	
	
	if (ButtonUp.getpressed){
     876:	80 91 b6 00 	lds	r24, 0x00B6	; 0x8000b6 <ButtonUp+0x9>
     87a:	90 91 b7 00 	lds	r25, 0x00B7	; 0x8000b7 <ButtonUp+0xa>
     87e:	89 2b       	or	r24, r25
     880:	49 f1       	breq	.+82     	; 0x8d4 <_Z13SpeedControllv+0x5e>
		slip++;
     882:	80 91 dc 00 	lds	r24, 0x00DC	; 0x8000dc <slip>
     886:	90 91 dd 00 	lds	r25, 0x00DD	; 0x8000dd <slip+0x1>
     88a:	01 96       	adiw	r24, 0x01	; 1
		if (slip>=3000){
     88c:	88 3b       	cpi	r24, 0xB8	; 184
     88e:	2b e0       	ldi	r18, 0x0B	; 11
     890:	92 07       	cpc	r25, r18
     892:	2c f4       	brge	.+10     	; 0x89e <_Z13SpeedControllv+0x28>
void SpeedControll(){
	
	
	
	if (ButtonUp.getpressed){
		slip++;
     894:	90 93 dd 00 	sts	0x00DD, r25	; 0x8000dd <slip+0x1>
     898:	80 93 dc 00 	sts	0x00DC, r24	; 0x8000dc <slip>
     89c:	1b c0       	rjmp	.+54     	; 0x8d4 <_Z13SpeedControllv+0x5e>
		if (slip>=3000){
			slip=3000;
     89e:	88 eb       	ldi	r24, 0xB8	; 184
     8a0:	9b e0       	ldi	r25, 0x0B	; 11
     8a2:	90 93 dd 00 	sts	0x00DD, r25	; 0x8000dd <slip+0x1>
     8a6:	80 93 dc 00 	sts	0x00DC, r24	; 0x8000dc <slip>
			Rotor.FrequncyUp(10);
     8aa:	6a e0       	ldi	r22, 0x0A	; 10
     8ac:	70 e0       	ldi	r23, 0x00	; 0
     8ae:	82 e6       	ldi	r24, 0x62	; 98
     8b0:	90 e0       	ldi	r25, 0x00	; 0
     8b2:	95 d5       	rcall	.+2858   	; 0x13de <_ZN5Rotor10FrequncyUpEi>
			ModeFeq = true;
     8b4:	81 e0       	ldi	r24, 0x01	; 1
     8b6:	80 93 e0 00 	sts	0x00E0, r24	; 0x8000e0 <ModeFeq>
			ModeFeqCount = 0;
     8ba:	10 92 df 00 	sts	0x00DF, r1	; 0x8000df <ModeFeqCount+0x1>
     8be:	10 92 de 00 	sts	0x00DE, r1	; 0x8000de <ModeFeqCount>
     8c2:	8f ef       	ldi	r24, 0xFF	; 255
     8c4:	91 ee       	ldi	r25, 0xE1	; 225
     8c6:	24 e0       	ldi	r18, 0x04	; 4
     8c8:	81 50       	subi	r24, 0x01	; 1
     8ca:	90 40       	sbci	r25, 0x00	; 0
     8cc:	20 40       	sbci	r18, 0x00	; 0
     8ce:	e1 f7       	brne	.-8      	; 0x8c8 <_Z13SpeedControllv+0x52>
     8d0:	00 c0       	rjmp	.+0      	; 0x8d2 <_Z13SpeedControllv+0x5c>
     8d2:	00 00       	nop
			_delay_ms(200);
		}
	}
	
	if(ButtonUp.PressRead()){
     8d4:	8d ea       	ldi	r24, 0xAD	; 173
     8d6:	90 e0       	ldi	r25, 0x00	; 0
     8d8:	0a dc       	rcall	.-2028   	; 0xee <_ZN6Button9PressReadEv>
     8da:	88 23       	and	r24, r24
     8dc:	91 f0       	breq	.+36     	; 0x902 <_Z13SpeedControllv+0x8c>
		slip=1;
     8de:	81 e0       	ldi	r24, 0x01	; 1
     8e0:	90 e0       	ldi	r25, 0x00	; 0
     8e2:	90 93 dd 00 	sts	0x00DD, r25	; 0x8000dd <slip+0x1>
     8e6:	80 93 dc 00 	sts	0x00DC, r24	; 0x8000dc <slip>
		Rotor.FrequncyUp(1);
     8ea:	61 e0       	ldi	r22, 0x01	; 1
     8ec:	70 e0       	ldi	r23, 0x00	; 0
     8ee:	82 e6       	ldi	r24, 0x62	; 98
     8f0:	90 e0       	ldi	r25, 0x00	; 0
     8f2:	75 d5       	rcall	.+2794   	; 0x13de <_ZN5Rotor10FrequncyUpEi>
		ModeFeq = true;
     8f4:	81 e0       	ldi	r24, 0x01	; 1
     8f6:	80 93 e0 00 	sts	0x00E0, r24	; 0x8000e0 <ModeFeq>
		ModeFeqCount = 0;
     8fa:	10 92 df 00 	sts	0x00DF, r1	; 0x8000df <ModeFeqCount+0x1>
     8fe:	10 92 de 00 	sts	0x00DE, r1	; 0x8000de <ModeFeqCount>
	}
	
	if (ButtonDown.getpressed){
     902:	80 91 ab 00 	lds	r24, 0x00AB	; 0x8000ab <ButtonDown+0x9>
     906:	90 91 ac 00 	lds	r25, 0x00AC	; 0x8000ac <ButtonDown+0xa>
     90a:	89 2b       	or	r24, r25
     90c:	49 f1       	breq	.+82     	; 0x960 <_Z13SpeedControllv+0xea>
		slip++;
     90e:	80 91 dc 00 	lds	r24, 0x00DC	; 0x8000dc <slip>
     912:	90 91 dd 00 	lds	r25, 0x00DD	; 0x8000dd <slip+0x1>
     916:	01 96       	adiw	r24, 0x01	; 1
		if (slip>=3000){
     918:	88 3b       	cpi	r24, 0xB8	; 184
     91a:	2b e0       	ldi	r18, 0x0B	; 11
     91c:	92 07       	cpc	r25, r18
     91e:	2c f4       	brge	.+10     	; 0x92a <_Z13SpeedControllv+0xb4>
		ModeFeq = true;
		ModeFeqCount = 0;
	}
	
	if (ButtonDown.getpressed){
		slip++;
     920:	90 93 dd 00 	sts	0x00DD, r25	; 0x8000dd <slip+0x1>
     924:	80 93 dc 00 	sts	0x00DC, r24	; 0x8000dc <slip>
     928:	1b c0       	rjmp	.+54     	; 0x960 <_Z13SpeedControllv+0xea>
		if (slip>=3000){
			slip=3000;
     92a:	88 eb       	ldi	r24, 0xB8	; 184
     92c:	9b e0       	ldi	r25, 0x0B	; 11
     92e:	90 93 dd 00 	sts	0x00DD, r25	; 0x8000dd <slip+0x1>
     932:	80 93 dc 00 	sts	0x00DC, r24	; 0x8000dc <slip>
			Rotor.FrequencyDown(10);
     936:	6a e0       	ldi	r22, 0x0A	; 10
     938:	70 e0       	ldi	r23, 0x00	; 0
     93a:	82 e6       	ldi	r24, 0x62	; 98
     93c:	90 e0       	ldi	r25, 0x00	; 0
     93e:	87 d5       	rcall	.+2830   	; 0x144e <_ZN5Rotor13FrequencyDownEi>
			ModeFeq = true;
     940:	81 e0       	ldi	r24, 0x01	; 1
     942:	80 93 e0 00 	sts	0x00E0, r24	; 0x8000e0 <ModeFeq>
			ModeFeqCount = 0;
     946:	10 92 df 00 	sts	0x00DF, r1	; 0x8000df <ModeFeqCount+0x1>
     94a:	10 92 de 00 	sts	0x00DE, r1	; 0x8000de <ModeFeqCount>
     94e:	8f ef       	ldi	r24, 0xFF	; 255
     950:	91 ee       	ldi	r25, 0xE1	; 225
     952:	24 e0       	ldi	r18, 0x04	; 4
     954:	81 50       	subi	r24, 0x01	; 1
     956:	90 40       	sbci	r25, 0x00	; 0
     958:	20 40       	sbci	r18, 0x00	; 0
     95a:	e1 f7       	brne	.-8      	; 0x954 <_Z13SpeedControllv+0xde>
     95c:	00 c0       	rjmp	.+0      	; 0x95e <_Z13SpeedControllv+0xe8>
     95e:	00 00       	nop
			_delay_ms(200);
		}
	}	
	
	if(ButtonDown.PressRead()){
     960:	82 ea       	ldi	r24, 0xA2	; 162
     962:	90 e0       	ldi	r25, 0x00	; 0
     964:	c4 db       	rcall	.-2168   	; 0xee <_ZN6Button9PressReadEv>
     966:	88 23       	and	r24, r24
     968:	91 f0       	breq	.+36     	; 0x98e <_Z13SpeedControllv+0x118>
		slip=1;
     96a:	81 e0       	ldi	r24, 0x01	; 1
     96c:	90 e0       	ldi	r25, 0x00	; 0
     96e:	90 93 dd 00 	sts	0x00DD, r25	; 0x8000dd <slip+0x1>
     972:	80 93 dc 00 	sts	0x00DC, r24	; 0x8000dc <slip>
		Rotor.FrequencyDown(1);
     976:	61 e0       	ldi	r22, 0x01	; 1
     978:	70 e0       	ldi	r23, 0x00	; 0
     97a:	82 e6       	ldi	r24, 0x62	; 98
     97c:	90 e0       	ldi	r25, 0x00	; 0
     97e:	67 d5       	rcall	.+2766   	; 0x144e <_ZN5Rotor13FrequencyDownEi>
		ModeFeq = true;		
     980:	81 e0       	ldi	r24, 0x01	; 1
     982:	80 93 e0 00 	sts	0x00E0, r24	; 0x8000e0 <ModeFeq>
		ModeFeqCount = 0;
     986:	10 92 df 00 	sts	0x00DF, r1	; 0x8000df <ModeFeqCount+0x1>
     98a:	10 92 de 00 	sts	0x00DE, r1	; 0x8000de <ModeFeqCount>
     98e:	08 95       	ret

00000990 <_Z13ModeStartTimev>:

#ifndef MODECONTROLL_H_
#define MODECONTROLL_H_
int slipTimes = 1000;

void ModeStartTime(){
     990:	8f 92       	push	r8
     992:	9f 92       	push	r9
     994:	bf 92       	push	r11
     996:	cf 92       	push	r12
     998:	df 92       	push	r13
     99a:	ef 92       	push	r14
     99c:	ff 92       	push	r15
     99e:	0f 93       	push	r16
     9a0:	1f 93       	push	r17
     9a2:	cf 93       	push	r28
     9a4:	df 93       	push	r29
	int slip;
	if (Rotor.RotorStopped()){
     9a6:	82 e6       	ldi	r24, 0x62	; 98
     9a8:	90 e0       	ldi	r25, 0x00	; 0
     9aa:	12 d6       	rcall	.+3108   	; 0x15d0 <_ZN5Rotor12RotorStoppedEv>
     9ac:	88 23       	and	r24, r24
     9ae:	09 f4       	brne	.+2      	; 0x9b2 <_Z13ModeStartTimev+0x22>
     9b0:	b4 c0       	rjmp	.+360    	; 0xb1a <_Z13ModeStartTimev+0x18a>
		while(((ButtonUp.getpressed||ButtonDown.getpressed)&&ButtonStart.getpressed)||Mode){
     9b2:	cd ea       	ldi	r28, 0xAD	; 173
     9b4:	d0 e0       	ldi	r29, 0x00	; 0
     9b6:	0f 2e       	mov	r0, r31
     9b8:	f2 ea       	ldi	r31, 0xA2	; 162
     9ba:	ef 2e       	mov	r14, r31
     9bc:	f0 e0       	ldi	r31, 0x00	; 0
     9be:	ff 2e       	mov	r15, r31
     9c0:	f0 2d       	mov	r31, r0
     9c2:	0f 2e       	mov	r0, r31
     9c4:	f3 ec       	ldi	r31, 0xC3	; 195
     9c6:	cf 2e       	mov	r12, r31
     9c8:	f0 e0       	ldi	r31, 0x00	; 0
     9ca:	df 2e       	mov	r13, r31
     9cc:	f0 2d       	mov	r31, r0
			Mode = true;
     9ce:	bb 24       	eor	r11, r11
     9d0:	b3 94       	inc	r11
int slipTimes = 1000;

void ModeStartTime(){
	int slip;
	if (Rotor.RotorStopped()){
		while(((ButtonUp.getpressed||ButtonDown.getpressed)&&ButtonStart.getpressed)||Mode){
     9d2:	89 85       	ldd	r24, Y+9	; 0x09
     9d4:	9a 85       	ldd	r25, Y+10	; 0x0a
     9d6:	89 2b       	or	r24, r25
     9d8:	29 f4       	brne	.+10     	; 0x9e4 <_Z13ModeStartTimev+0x54>
     9da:	f7 01       	movw	r30, r14
     9dc:	81 85       	ldd	r24, Z+9	; 0x09
     9de:	92 85       	ldd	r25, Z+10	; 0x0a
     9e0:	89 2b       	or	r24, r25
     9e2:	29 f0       	breq	.+10     	; 0x9ee <_Z13ModeStartTimev+0x5e>
     9e4:	f6 01       	movw	r30, r12
     9e6:	81 85       	ldd	r24, Z+9	; 0x09
     9e8:	92 85       	ldd	r25, Z+10	; 0x0a
     9ea:	89 2b       	or	r24, r25
     9ec:	29 f4       	brne	.+10     	; 0x9f8 <_Z13ModeStartTimev+0x68>
     9ee:	80 91 e1 00 	lds	r24, 0x00E1	; 0x8000e1 <Mode>
     9f2:	88 23       	and	r24, r24
     9f4:	09 f4       	brne	.+2      	; 0x9f8 <_Z13ModeStartTimev+0x68>
     9f6:	91 c0       	rjmp	.+290    	; 0xb1a <_Z13ModeStartTimev+0x18a>
			Mode = true;
     9f8:	b0 92 e1 00 	sts	0x00E1, r11	; 0x8000e1 <Mode>
			BlueLed.On();
     9fc:	8e e8       	ldi	r24, 0x8E	; 142
     9fe:	90 e0       	ldi	r25, 0x00	; 0
     a00:	9a d2       	rcall	.+1332   	; 0xf36 <_ZN6Output2OnEv>
			RedLed.Off();
     a02:	83 e9       	ldi	r24, 0x93	; 147
     a04:	90 e0       	ldi	r25, 0x00	; 0
     a06:	36 d2       	rcall	.+1132   	; 0xe74 <_ZN6Output3OffEv>
			GreenLed.Off();
     a08:	88 e9       	ldi	r24, 0x98	; 152
     a0a:	90 e0       	ldi	r25, 0x00	; 0
     a0c:	33 d2       	rcall	.+1126   	; 0xe74 <_ZN6Output3OffEv>


			ButtonUp.Scan();
     a0e:	ce 01       	movw	r24, r28
     a10:	a6 db       	rcall	.-2228   	; 0x15e <_ZN6Button4ScanEv>
			if(ButtonUp.getpressed){
     a12:	89 85       	ldd	r24, Y+9	; 0x09
     a14:	9a 85       	ldd	r25, Y+10	; 0x0a
     a16:	89 2b       	or	r24, r25
     a18:	c1 f0       	breq	.+48     	; 0xa4a <_Z13ModeStartTimev+0xba>
				slip++;
     a1a:	0f 5f       	subi	r16, 0xFF	; 255
     a1c:	1f 4f       	sbci	r17, 0xFF	; 255
				if(slip>=slipTimes){
     a1e:	80 90 60 00 	lds	r8, 0x0060	; 0x800060 <__data_start>
     a22:	90 90 61 00 	lds	r9, 0x0061	; 0x800061 <__data_start+0x1>
     a26:	08 15       	cp	r16, r8
     a28:	19 05       	cpc	r17, r9
     a2a:	7c f0       	brlt	.+30     	; 0xa4a <_Z13ModeStartTimev+0xba>
					slip = slipTimes;
					Rotor.StartimeUp(1000);
     a2c:	68 ee       	ldi	r22, 0xE8	; 232
     a2e:	73 e0       	ldi	r23, 0x03	; 3
     a30:	82 e6       	ldi	r24, 0x62	; 98
     a32:	90 e0       	ldi	r25, 0x00	; 0
     a34:	47 d5       	rcall	.+2702   	; 0x14c4 <_ZN5Rotor10StartimeUpEi>
     a36:	ff ef       	ldi	r31, 0xFF	; 255
     a38:	20 e7       	ldi	r18, 0x70	; 112
     a3a:	82 e0       	ldi	r24, 0x02	; 2
     a3c:	f1 50       	subi	r31, 0x01	; 1
     a3e:	20 40       	sbci	r18, 0x00	; 0
     a40:	80 40       	sbci	r24, 0x00	; 0
     a42:	e1 f7       	brne	.-8      	; 0xa3c <_Z13ModeStartTimev+0xac>
     a44:	00 c0       	rjmp	.+0      	; 0xa46 <_Z13ModeStartTimev+0xb6>
     a46:	00 00       	nop

			ButtonUp.Scan();
			if(ButtonUp.getpressed){
				slip++;
				if(slip>=slipTimes){
					slip = slipTimes;
     a48:	84 01       	movw	r16, r8
					Rotor.StartimeUp(1000);
					_delay_ms(100);
				}
			}	
			if(ButtonUp.PressRead()){
     a4a:	ce 01       	movw	r24, r28
     a4c:	50 db       	rcall	.-2400   	; 0xee <_ZN6Button9PressReadEv>
     a4e:	88 23       	and	r24, r24
     a50:	99 f0       	breq	.+38     	; 0xa78 <_Z13ModeStartTimev+0xe8>
				slip = 0;
				Rotor.StartimeUp(100);
     a52:	64 e6       	ldi	r22, 0x64	; 100
     a54:	70 e0       	ldi	r23, 0x00	; 0
     a56:	82 e6       	ldi	r24, 0x62	; 98
     a58:	90 e0       	ldi	r25, 0x00	; 0
     a5a:	34 d5       	rcall	.+2664   	; 0x14c4 <_ZN5Rotor10StartimeUpEi>
				BlueLed.Off();
     a5c:	8e e8       	ldi	r24, 0x8E	; 142
     a5e:	90 e0       	ldi	r25, 0x00	; 0
     a60:	09 d2       	rcall	.+1042   	; 0xe74 <_ZN6Output3OffEv>
     a62:	9f ef       	ldi	r25, 0xFF	; 255
     a64:	e0 e7       	ldi	r30, 0x70	; 112
     a66:	f2 e0       	ldi	r31, 0x02	; 2
     a68:	91 50       	subi	r25, 0x01	; 1
     a6a:	e0 40       	sbci	r30, 0x00	; 0
     a6c:	f0 40       	sbci	r31, 0x00	; 0
     a6e:	e1 f7       	brne	.-8      	; 0xa68 <_Z13ModeStartTimev+0xd8>
     a70:	00 c0       	rjmp	.+0      	; 0xa72 <_Z13ModeStartTimev+0xe2>
     a72:	00 00       	nop
					Rotor.StartimeUp(1000);
					_delay_ms(100);
				}
			}	
			if(ButtonUp.PressRead()){
				slip = 0;
     a74:	00 e0       	ldi	r16, 0x00	; 0
     a76:	10 e0       	ldi	r17, 0x00	; 0
			
			
			
			
			
			ButtonDown.Scan();
     a78:	c7 01       	movw	r24, r14
     a7a:	71 db       	rcall	.-2334   	; 0x15e <_ZN6Button4ScanEv>
			if(ButtonDown.getpressed){
     a7c:	f7 01       	movw	r30, r14
     a7e:	81 85       	ldd	r24, Z+9	; 0x09
     a80:	92 85       	ldd	r25, Z+10	; 0x0a
     a82:	89 2b       	or	r24, r25
     a84:	c1 f0       	breq	.+48     	; 0xab6 <_Z13ModeStartTimev+0x126>
				slip++;
     a86:	0f 5f       	subi	r16, 0xFF	; 255
     a88:	1f 4f       	sbci	r17, 0xFF	; 255
				if(slip>=slipTimes){
     a8a:	80 90 60 00 	lds	r8, 0x0060	; 0x800060 <__data_start>
     a8e:	90 90 61 00 	lds	r9, 0x0061	; 0x800061 <__data_start+0x1>
     a92:	08 15       	cp	r16, r8
     a94:	19 05       	cpc	r17, r9
     a96:	7c f0       	brlt	.+30     	; 0xab6 <_Z13ModeStartTimev+0x126>
					slip = slipTimes;
					Rotor.StartimeDown(1000);
     a98:	68 ee       	ldi	r22, 0xE8	; 232
     a9a:	73 e0       	ldi	r23, 0x03	; 3
     a9c:	82 e6       	ldi	r24, 0x62	; 98
     a9e:	90 e0       	ldi	r25, 0x00	; 0
     aa0:	34 d5       	rcall	.+2664   	; 0x150a <_ZN5Rotor12StartimeDownEi>
     aa2:	ff ef       	ldi	r31, 0xFF	; 255
     aa4:	20 e7       	ldi	r18, 0x70	; 112
     aa6:	82 e0       	ldi	r24, 0x02	; 2
     aa8:	f1 50       	subi	r31, 0x01	; 1
     aaa:	20 40       	sbci	r18, 0x00	; 0
     aac:	80 40       	sbci	r24, 0x00	; 0
     aae:	e1 f7       	brne	.-8      	; 0xaa8 <_Z13ModeStartTimev+0x118>
     ab0:	00 c0       	rjmp	.+0      	; 0xab2 <_Z13ModeStartTimev+0x122>
     ab2:	00 00       	nop
			
			ButtonDown.Scan();
			if(ButtonDown.getpressed){
				slip++;
				if(slip>=slipTimes){
					slip = slipTimes;
     ab4:	84 01       	movw	r16, r8
					Rotor.StartimeDown(1000);
					_delay_ms(100);
				}
			}
			if(ButtonDown.PressRead()){
     ab6:	c7 01       	movw	r24, r14
     ab8:	1a db       	rcall	.-2508   	; 0xee <_ZN6Button9PressReadEv>
     aba:	88 23       	and	r24, r24
     abc:	99 f0       	breq	.+38     	; 0xae4 <_Z13ModeStartTimev+0x154>
				slip = 0;
				Rotor.StartimeDown(100);
     abe:	64 e6       	ldi	r22, 0x64	; 100
     ac0:	70 e0       	ldi	r23, 0x00	; 0
     ac2:	82 e6       	ldi	r24, 0x62	; 98
     ac4:	90 e0       	ldi	r25, 0x00	; 0
     ac6:	21 d5       	rcall	.+2626   	; 0x150a <_ZN5Rotor12StartimeDownEi>
				BlueLed.Off();
     ac8:	8e e8       	ldi	r24, 0x8E	; 142
     aca:	90 e0       	ldi	r25, 0x00	; 0
     acc:	d3 d1       	rcall	.+934    	; 0xe74 <_ZN6Output3OffEv>
     ace:	9f ef       	ldi	r25, 0xFF	; 255
     ad0:	e0 e7       	ldi	r30, 0x70	; 112
     ad2:	f2 e0       	ldi	r31, 0x02	; 2
     ad4:	91 50       	subi	r25, 0x01	; 1
     ad6:	e0 40       	sbci	r30, 0x00	; 0
     ad8:	f0 40       	sbci	r31, 0x00	; 0
     ada:	e1 f7       	brne	.-8      	; 0xad4 <_Z13ModeStartTimev+0x144>
     adc:	00 c0       	rjmp	.+0      	; 0xade <_Z13ModeStartTimev+0x14e>
     ade:	00 00       	nop
					Rotor.StartimeDown(1000);
					_delay_ms(100);
				}
			}
			if(ButtonDown.PressRead()){
				slip = 0;
     ae0:	00 e0       	ldi	r16, 0x00	; 0
     ae2:	10 e0       	ldi	r17, 0x00	; 0
				Rotor.StartimeDown(100);
				BlueLed.Off();
				_delay_ms(100);
			}
			
			LED_DisplayTime_ms(Rotor.StaringTime);
     ae4:	60 91 7f 00 	lds	r22, 0x007F	; 0x80007f <__data_end+0x1d>
     ae8:	70 91 80 00 	lds	r23, 0x0080	; 0x800080 <__data_end+0x1e>
     aec:	80 91 81 00 	lds	r24, 0x0081	; 0x800081 <__data_end+0x1f>
     af0:	90 91 82 00 	lds	r25, 0x0082	; 0x800082 <__data_end+0x20>
     af4:	8b dd       	rcall	.-1258   	; 0x60c <_Z18LED_DisplayTime_msl>
			
			
			ButtonStart.Scan();
     af6:	c6 01       	movw	r24, r12
     af8:	32 db       	rcall	.-2460   	; 0x15e <_ZN6Button4ScanEv>
			ButtonStart.PressRead();
     afa:	c6 01       	movw	r24, r12
     afc:	f8 da       	rcall	.-2576   	; 0xee <_ZN6Button9PressReadEv>
			
			if (!ButtonUp.getpressed&&!ButtonStart.getpressed){
     afe:	89 85       	ldd	r24, Y+9	; 0x09
     b00:	9a 85       	ldd	r25, Y+10	; 0x0a
     b02:	89 2b       	or	r24, r25
     b04:	09 f0       	breq	.+2      	; 0xb08 <_Z13ModeStartTimev+0x178>
     b06:	65 cf       	rjmp	.-310    	; 0x9d2 <_Z13ModeStartTimev+0x42>
     b08:	f6 01       	movw	r30, r12
     b0a:	81 85       	ldd	r24, Z+9	; 0x09
     b0c:	92 85       	ldd	r25, Z+10	; 0x0a
     b0e:	89 2b       	or	r24, r25
     b10:	09 f0       	breq	.+2      	; 0xb14 <_Z13ModeStartTimev+0x184>
     b12:	5f cf       	rjmp	.-322    	; 0x9d2 <_Z13ModeStartTimev+0x42>
				Mode = false;
     b14:	10 92 e1 00 	sts	0x00E1, r1	; 0x8000e1 <Mode>
     b18:	5c cf       	rjmp	.-328    	; 0x9d2 <_Z13ModeStartTimev+0x42>
			}
		}
	}
}
     b1a:	df 91       	pop	r29
     b1c:	cf 91       	pop	r28
     b1e:	1f 91       	pop	r17
     b20:	0f 91       	pop	r16
     b22:	ff 90       	pop	r15
     b24:	ef 90       	pop	r14
     b26:	df 90       	pop	r13
     b28:	cf 90       	pop	r12
     b2a:	bf 90       	pop	r11
     b2c:	9f 90       	pop	r9
     b2e:	8f 90       	pop	r8
     b30:	08 95       	ret

00000b32 <_Z12ModeStopTimev>:

void ModeStopTime(){
     b32:	8f 92       	push	r8
     b34:	9f 92       	push	r9
     b36:	bf 92       	push	r11
     b38:	cf 92       	push	r12
     b3a:	df 92       	push	r13
     b3c:	ef 92       	push	r14
     b3e:	ff 92       	push	r15
     b40:	0f 93       	push	r16
     b42:	1f 93       	push	r17
     b44:	cf 93       	push	r28
     b46:	df 93       	push	r29
	int slip;
	if (Rotor.RotorStopped()){
     b48:	82 e6       	ldi	r24, 0x62	; 98
     b4a:	90 e0       	ldi	r25, 0x00	; 0
     b4c:	41 d5       	rcall	.+2690   	; 0x15d0 <_ZN5Rotor12RotorStoppedEv>
     b4e:	88 23       	and	r24, r24
     b50:	09 f4       	brne	.+2      	; 0xb54 <_Z12ModeStopTimev+0x22>
     b52:	b6 c0       	rjmp	.+364    	; 0xcc0 <_Z12ModeStopTimev+0x18e>
		while(((ButtonUp.getpressed||ButtonDown.getpressed)&&ButtonStop.getpressed)||Mode){
     b54:	cd ea       	ldi	r28, 0xAD	; 173
     b56:	d0 e0       	ldi	r29, 0x00	; 0
     b58:	0f 2e       	mov	r0, r31
     b5a:	f2 ea       	ldi	r31, 0xA2	; 162
     b5c:	ef 2e       	mov	r14, r31
     b5e:	f0 e0       	ldi	r31, 0x00	; 0
     b60:	ff 2e       	mov	r15, r31
     b62:	f0 2d       	mov	r31, r0
     b64:	0f 2e       	mov	r0, r31
     b66:	fe ec       	ldi	r31, 0xCE	; 206
     b68:	cf 2e       	mov	r12, r31
     b6a:	f0 e0       	ldi	r31, 0x00	; 0
     b6c:	df 2e       	mov	r13, r31
     b6e:	f0 2d       	mov	r31, r0
			Mode = true;
     b70:	bb 24       	eor	r11, r11
     b72:	b3 94       	inc	r11
}

void ModeStopTime(){
	int slip;
	if (Rotor.RotorStopped()){
		while(((ButtonUp.getpressed||ButtonDown.getpressed)&&ButtonStop.getpressed)||Mode){
     b74:	89 85       	ldd	r24, Y+9	; 0x09
     b76:	9a 85       	ldd	r25, Y+10	; 0x0a
     b78:	89 2b       	or	r24, r25
     b7a:	29 f4       	brne	.+10     	; 0xb86 <_Z12ModeStopTimev+0x54>
     b7c:	f7 01       	movw	r30, r14
     b7e:	81 85       	ldd	r24, Z+9	; 0x09
     b80:	92 85       	ldd	r25, Z+10	; 0x0a
     b82:	89 2b       	or	r24, r25
     b84:	29 f0       	breq	.+10     	; 0xb90 <_Z12ModeStopTimev+0x5e>
     b86:	f6 01       	movw	r30, r12
     b88:	81 85       	ldd	r24, Z+9	; 0x09
     b8a:	92 85       	ldd	r25, Z+10	; 0x0a
     b8c:	89 2b       	or	r24, r25
     b8e:	29 f4       	brne	.+10     	; 0xb9a <_Z12ModeStopTimev+0x68>
     b90:	80 91 e1 00 	lds	r24, 0x00E1	; 0x8000e1 <Mode>
     b94:	88 23       	and	r24, r24
     b96:	09 f4       	brne	.+2      	; 0xb9a <_Z12ModeStopTimev+0x68>
     b98:	93 c0       	rjmp	.+294    	; 0xcc0 <_Z12ModeStopTimev+0x18e>
			Mode = true;
     b9a:	b0 92 e1 00 	sts	0x00E1, r11	; 0x8000e1 <Mode>
			BlueLed.On();
     b9e:	8e e8       	ldi	r24, 0x8E	; 142
     ba0:	90 e0       	ldi	r25, 0x00	; 0
     ba2:	c9 d1       	rcall	.+914    	; 0xf36 <_ZN6Output2OnEv>
			RedLed.Off();
     ba4:	83 e9       	ldi	r24, 0x93	; 147
     ba6:	90 e0       	ldi	r25, 0x00	; 0
     ba8:	65 d1       	rcall	.+714    	; 0xe74 <_ZN6Output3OffEv>
			GreenLed.Off();
     baa:	88 e9       	ldi	r24, 0x98	; 152
     bac:	90 e0       	ldi	r25, 0x00	; 0
     bae:	62 d1       	rcall	.+708    	; 0xe74 <_ZN6Output3OffEv>


			ButtonUp.Scan();
     bb0:	ce 01       	movw	r24, r28
     bb2:	d5 da       	rcall	.-2646   	; 0x15e <_ZN6Button4ScanEv>
			if(ButtonUp.getpressed){
     bb4:	89 85       	ldd	r24, Y+9	; 0x09
     bb6:	9a 85       	ldd	r25, Y+10	; 0x0a
     bb8:	89 2b       	or	r24, r25
     bba:	c1 f0       	breq	.+48     	; 0xbec <_Z12ModeStopTimev+0xba>
				slip++;
     bbc:	0f 5f       	subi	r16, 0xFF	; 255
     bbe:	1f 4f       	sbci	r17, 0xFF	; 255
				if(slip>=slipTimes){
     bc0:	80 90 60 00 	lds	r8, 0x0060	; 0x800060 <__data_start>
     bc4:	90 90 61 00 	lds	r9, 0x0061	; 0x800061 <__data_start+0x1>
     bc8:	08 15       	cp	r16, r8
     bca:	19 05       	cpc	r17, r9
     bcc:	7c f0       	brlt	.+30     	; 0xbec <_Z12ModeStopTimev+0xba>
					slip = slipTimes;
					Rotor.StoptimeUp(1000);
     bce:	68 ee       	ldi	r22, 0xE8	; 232
     bd0:	73 e0       	ldi	r23, 0x03	; 3
     bd2:	82 e6       	ldi	r24, 0x62	; 98
     bd4:	90 e0       	ldi	r25, 0x00	; 0
     bd6:	b9 d4       	rcall	.+2418   	; 0x154a <_ZN5Rotor10StoptimeUpEi>
     bd8:	ff ef       	ldi	r31, 0xFF	; 255
     bda:	20 e7       	ldi	r18, 0x70	; 112
     bdc:	82 e0       	ldi	r24, 0x02	; 2
     bde:	f1 50       	subi	r31, 0x01	; 1
     be0:	20 40       	sbci	r18, 0x00	; 0
     be2:	80 40       	sbci	r24, 0x00	; 0
     be4:	e1 f7       	brne	.-8      	; 0xbde <_Z12ModeStopTimev+0xac>
     be6:	00 c0       	rjmp	.+0      	; 0xbe8 <_Z12ModeStopTimev+0xb6>
     be8:	00 00       	nop

			ButtonUp.Scan();
			if(ButtonUp.getpressed){
				slip++;
				if(slip>=slipTimes){
					slip = slipTimes;
     bea:	84 01       	movw	r16, r8
					Rotor.StoptimeUp(1000);
					_delay_ms(100);
				}
			}
			if(ButtonUp.PressRead()){
     bec:	ce 01       	movw	r24, r28
     bee:	7f da       	rcall	.-2818   	; 0xee <_ZN6Button9PressReadEv>
     bf0:	88 23       	and	r24, r24
     bf2:	99 f0       	breq	.+38     	; 0xc1a <_Z12ModeStopTimev+0xe8>
				slip = 0;
				Rotor.StoptimeUp(100);
     bf4:	64 e6       	ldi	r22, 0x64	; 100
     bf6:	70 e0       	ldi	r23, 0x00	; 0
     bf8:	82 e6       	ldi	r24, 0x62	; 98
     bfa:	90 e0       	ldi	r25, 0x00	; 0
     bfc:	a6 d4       	rcall	.+2380   	; 0x154a <_ZN5Rotor10StoptimeUpEi>
				BlueLed.Off();
     bfe:	8e e8       	ldi	r24, 0x8E	; 142
     c00:	90 e0       	ldi	r25, 0x00	; 0
     c02:	38 d1       	rcall	.+624    	; 0xe74 <_ZN6Output3OffEv>
     c04:	9f ef       	ldi	r25, 0xFF	; 255
     c06:	e0 e7       	ldi	r30, 0x70	; 112
     c08:	f2 e0       	ldi	r31, 0x02	; 2
     c0a:	91 50       	subi	r25, 0x01	; 1
     c0c:	e0 40       	sbci	r30, 0x00	; 0
     c0e:	f0 40       	sbci	r31, 0x00	; 0
     c10:	e1 f7       	brne	.-8      	; 0xc0a <_Z12ModeStopTimev+0xd8>
     c12:	00 c0       	rjmp	.+0      	; 0xc14 <_Z12ModeStopTimev+0xe2>
     c14:	00 00       	nop
					Rotor.StoptimeUp(1000);
					_delay_ms(100);
				}
			}
			if(ButtonUp.PressRead()){
				slip = 0;
     c16:	00 e0       	ldi	r16, 0x00	; 0
     c18:	10 e0       	ldi	r17, 0x00	; 0
			
			
			
			
			
			ButtonDown.Scan();
     c1a:	c7 01       	movw	r24, r14
     c1c:	a0 da       	rcall	.-2752   	; 0x15e <_ZN6Button4ScanEv>
			ButtonUp.Scan();
     c1e:	ce 01       	movw	r24, r28
     c20:	9e da       	rcall	.-2756   	; 0x15e <_ZN6Button4ScanEv>
			if(ButtonDown.getpressed){
     c22:	f7 01       	movw	r30, r14
     c24:	81 85       	ldd	r24, Z+9	; 0x09
     c26:	92 85       	ldd	r25, Z+10	; 0x0a
     c28:	89 2b       	or	r24, r25
     c2a:	c1 f0       	breq	.+48     	; 0xc5c <_Z12ModeStopTimev+0x12a>
				slip++;
     c2c:	0f 5f       	subi	r16, 0xFF	; 255
     c2e:	1f 4f       	sbci	r17, 0xFF	; 255
				if(slip>=slipTimes){
     c30:	80 90 60 00 	lds	r8, 0x0060	; 0x800060 <__data_start>
     c34:	90 90 61 00 	lds	r9, 0x0061	; 0x800061 <__data_start+0x1>
     c38:	08 15       	cp	r16, r8
     c3a:	19 05       	cpc	r17, r9
     c3c:	7c f0       	brlt	.+30     	; 0xc5c <_Z12ModeStopTimev+0x12a>
					slip = slipTimes;
					Rotor.StoptimeDown(1000);
     c3e:	68 ee       	ldi	r22, 0xE8	; 232
     c40:	73 e0       	ldi	r23, 0x03	; 3
     c42:	82 e6       	ldi	r24, 0x62	; 98
     c44:	90 e0       	ldi	r25, 0x00	; 0
     c46:	a4 d4       	rcall	.+2376   	; 0x1590 <_ZN5Rotor12StoptimeDownEi>
     c48:	ff ef       	ldi	r31, 0xFF	; 255
     c4a:	20 e7       	ldi	r18, 0x70	; 112
     c4c:	82 e0       	ldi	r24, 0x02	; 2
     c4e:	f1 50       	subi	r31, 0x01	; 1
     c50:	20 40       	sbci	r18, 0x00	; 0
     c52:	80 40       	sbci	r24, 0x00	; 0
     c54:	e1 f7       	brne	.-8      	; 0xc4e <_Z12ModeStopTimev+0x11c>
     c56:	00 c0       	rjmp	.+0      	; 0xc58 <_Z12ModeStopTimev+0x126>
     c58:	00 00       	nop
			ButtonDown.Scan();
			ButtonUp.Scan();
			if(ButtonDown.getpressed){
				slip++;
				if(slip>=slipTimes){
					slip = slipTimes;
     c5a:	84 01       	movw	r16, r8
					_delay_ms(100);
				}
			}
			
			
			if(ButtonDown.PressRead()){
     c5c:	c7 01       	movw	r24, r14
     c5e:	47 da       	rcall	.-2930   	; 0xee <_ZN6Button9PressReadEv>
     c60:	88 23       	and	r24, r24
     c62:	99 f0       	breq	.+38     	; 0xc8a <_Z12ModeStopTimev+0x158>
				slip = 0;
				Rotor.StoptimeDown(100);
     c64:	64 e6       	ldi	r22, 0x64	; 100
     c66:	70 e0       	ldi	r23, 0x00	; 0
     c68:	82 e6       	ldi	r24, 0x62	; 98
     c6a:	90 e0       	ldi	r25, 0x00	; 0
     c6c:	91 d4       	rcall	.+2338   	; 0x1590 <_ZN5Rotor12StoptimeDownEi>
				BlueLed.Off();
     c6e:	8e e8       	ldi	r24, 0x8E	; 142
     c70:	90 e0       	ldi	r25, 0x00	; 0
     c72:	00 d1       	rcall	.+512    	; 0xe74 <_ZN6Output3OffEv>
     c74:	9f ef       	ldi	r25, 0xFF	; 255
     c76:	e0 e7       	ldi	r30, 0x70	; 112
     c78:	f2 e0       	ldi	r31, 0x02	; 2
     c7a:	91 50       	subi	r25, 0x01	; 1
     c7c:	e0 40       	sbci	r30, 0x00	; 0
     c7e:	f0 40       	sbci	r31, 0x00	; 0
     c80:	e1 f7       	brne	.-8      	; 0xc7a <_Z12ModeStopTimev+0x148>
     c82:	00 c0       	rjmp	.+0      	; 0xc84 <_Z12ModeStopTimev+0x152>
     c84:	00 00       	nop
				}
			}
			
			
			if(ButtonDown.PressRead()){
				slip = 0;
     c86:	00 e0       	ldi	r16, 0x00	; 0
     c88:	10 e0       	ldi	r17, 0x00	; 0
				Rotor.StoptimeDown(100);
				BlueLed.Off();
				_delay_ms(100);
			}
			
			LED_DisplayTime_ms(Rotor.StopingTime);
     c8a:	60 91 87 00 	lds	r22, 0x0087	; 0x800087 <__data_end+0x25>
     c8e:	70 91 88 00 	lds	r23, 0x0088	; 0x800088 <__data_end+0x26>
     c92:	80 91 89 00 	lds	r24, 0x0089	; 0x800089 <__data_end+0x27>
     c96:	90 91 8a 00 	lds	r25, 0x008A	; 0x80008a <__data_end+0x28>
     c9a:	b8 dc       	rcall	.-1680   	; 0x60c <_Z18LED_DisplayTime_msl>
			
			ButtonStop.Scan();
     c9c:	c6 01       	movw	r24, r12
     c9e:	5f da       	rcall	.-2882   	; 0x15e <_ZN6Button4ScanEv>
			ButtonStop.PressRead();
     ca0:	c6 01       	movw	r24, r12
     ca2:	25 da       	rcall	.-2998   	; 0xee <_ZN6Button9PressReadEv>
			
			if (!ButtonUp.getpressed&&!ButtonStop.getpressed){
     ca4:	89 85       	ldd	r24, Y+9	; 0x09
     ca6:	9a 85       	ldd	r25, Y+10	; 0x0a
     ca8:	89 2b       	or	r24, r25
     caa:	09 f0       	breq	.+2      	; 0xcae <_Z12ModeStopTimev+0x17c>
     cac:	63 cf       	rjmp	.-314    	; 0xb74 <_Z12ModeStopTimev+0x42>
     cae:	f6 01       	movw	r30, r12
     cb0:	81 85       	ldd	r24, Z+9	; 0x09
     cb2:	92 85       	ldd	r25, Z+10	; 0x0a
     cb4:	89 2b       	or	r24, r25
     cb6:	09 f0       	breq	.+2      	; 0xcba <_Z12ModeStopTimev+0x188>
     cb8:	5d cf       	rjmp	.-326    	; 0xb74 <_Z12ModeStopTimev+0x42>
				Mode = false;
     cba:	10 92 e1 00 	sts	0x00E1, r1	; 0x8000e1 <Mode>
     cbe:	5a cf       	rjmp	.-332    	; 0xb74 <_Z12ModeStopTimev+0x42>
			}
		}
	}
}
     cc0:	df 91       	pop	r29
     cc2:	cf 91       	pop	r28
     cc4:	1f 91       	pop	r17
     cc6:	0f 91       	pop	r16
     cc8:	ff 90       	pop	r15
     cca:	ef 90       	pop	r14
     ccc:	df 90       	pop	r13
     cce:	cf 90       	pop	r12
     cd0:	bf 90       	pop	r11
     cd2:	9f 90       	pop	r9
     cd4:	8f 90       	pop	r8
     cd6:	08 95       	ret

00000cd8 <_Z15ProtectControllv>:
#ifndef PROTECTCONTROLL_H_
#define PROTECTCONTROLL_H_


void ProtectControll(){
	if(Protect.Read()){
     cd8:	89 ed       	ldi	r24, 0xD9	; 217
     cda:	90 e0       	ldi	r25, 0x00	; 0
     cdc:	a0 da       	rcall	.-2752   	; 0x21e <_ZN5Input4ReadEv>
     cde:	88 23       	and	r24, r24
     ce0:	29 f0       	breq	.+10     	; 0xcec <_Z15ProtectControllv+0x14>
		Rotor.Starting = false;
     ce2:	e2 e6       	ldi	r30, 0x62	; 98
     ce4:	f0 e0       	ldi	r31, 0x00	; 0
     ce6:	10 8e       	std	Z+24, r1	; 0x18
		Rotor.Stoping = false;
     ce8:	11 8e       	std	Z+25, r1	; 0x19
		Rotor.Started=0;
     cea:	13 8e       	std	Z+27, r1	; 0x1b
	}
	
	if (Protect.Read()){
     cec:	89 ed       	ldi	r24, 0xD9	; 217
     cee:	90 e0       	ldi	r25, 0x00	; 0
     cf0:	96 da       	rcall	.-2772   	; 0x21e <_ZN5Input4ReadEv>
     cf2:	88 23       	and	r24, r24
     cf4:	21 f0       	breq	.+8      	; 0xcfe <_Z15ProtectControllv+0x26>
		Power.Off();
     cf6:	8d e9       	ldi	r24, 0x9D	; 157
     cf8:	90 e0       	ldi	r25, 0x00	; 0
     cfa:	bc d0       	rcall	.+376    	; 0xe74 <_ZN6Output3OffEv>
     cfc:	08 95       	ret
		}else{
		Power.On();
     cfe:	8d e9       	ldi	r24, 0x9D	; 157
     d00:	90 e0       	ldi	r25, 0x00	; 0
     d02:	19 d1       	rcall	.+562    	; 0xf36 <_ZN6Output2OnEv>
     d04:	08 95       	ret

00000d06 <_Z11LedControllv>:

#ifndef LEDCONTROLL_H_
#define LEDCONTROLL_H_

void LedControll(){
	if (Rotor.Starting||Rotor.Stoping){
     d06:	80 91 7a 00 	lds	r24, 0x007A	; 0x80007a <__data_end+0x18>
     d0a:	81 11       	cpse	r24, r1
     d0c:	04 c0       	rjmp	.+8      	; 0xd16 <_Z11LedControllv+0x10>
     d0e:	80 91 7b 00 	lds	r24, 0x007B	; 0x80007b <__data_end+0x19>
     d12:	88 23       	and	r24, r24
     d14:	51 f0       	breq	.+20     	; 0xd2a <_Z11LedControllv+0x24>
		BlueLed.On();
     d16:	8e e8       	ldi	r24, 0x8E	; 142
     d18:	90 e0       	ldi	r25, 0x00	; 0
     d1a:	0d d1       	rcall	.+538    	; 0xf36 <_ZN6Output2OnEv>
		RedLed.Off();
     d1c:	83 e9       	ldi	r24, 0x93	; 147
     d1e:	90 e0       	ldi	r25, 0x00	; 0
     d20:	a9 d0       	rcall	.+338    	; 0xe74 <_ZN6Output3OffEv>
		GreenLed.Off();
     d22:	88 e9       	ldi	r24, 0x98	; 152
     d24:	90 e0       	ldi	r25, 0x00	; 0
     d26:	a6 d0       	rcall	.+332    	; 0xe74 <_ZN6Output3OffEv>
     d28:	03 c0       	rjmp	.+6      	; 0xd30 <_Z11LedControllv+0x2a>
		}else{
		BlueLed.Off();
     d2a:	8e e8       	ldi	r24, 0x8E	; 142
     d2c:	90 e0       	ldi	r25, 0x00	; 0
     d2e:	a2 d0       	rcall	.+324    	; 0xe74 <_ZN6Output3OffEv>
	}
	
	if (Rotor.Started){
     d30:	80 91 7d 00 	lds	r24, 0x007D	; 0x80007d <__data_end+0x1b>
     d34:	88 23       	and	r24, r24
     d36:	79 f0       	breq	.+30     	; 0xd56 <_Z11LedControllv+0x50>
		if (!Rotor.Starting&&!Rotor.Stoping){GreenLed.On();}
     d38:	80 91 7a 00 	lds	r24, 0x007A	; 0x80007a <__data_end+0x18>
     d3c:	81 11       	cpse	r24, r1
     d3e:	07 c0       	rjmp	.+14     	; 0xd4e <_Z11LedControllv+0x48>
     d40:	80 91 7b 00 	lds	r24, 0x007B	; 0x80007b <__data_end+0x19>
     d44:	81 11       	cpse	r24, r1
     d46:	03 c0       	rjmp	.+6      	; 0xd4e <_Z11LedControllv+0x48>
     d48:	88 e9       	ldi	r24, 0x98	; 152
     d4a:	90 e0       	ldi	r25, 0x00	; 0
     d4c:	f4 d0       	rcall	.+488    	; 0xf36 <_ZN6Output2OnEv>
		RedLed.Off();
     d4e:	83 e9       	ldi	r24, 0x93	; 147
     d50:	90 e0       	ldi	r25, 0x00	; 0
     d52:	90 d0       	rcall	.+288    	; 0xe74 <_ZN6Output3OffEv>
     d54:	08 95       	ret
		}else{
		GreenLed.Off();
     d56:	88 e9       	ldi	r24, 0x98	; 152
     d58:	90 e0       	ldi	r25, 0x00	; 0
     d5a:	8c d0       	rcall	.+280    	; 0xe74 <_ZN6Output3OffEv>
		if (!Rotor.Starting&&!Rotor.Stoping){RedLed.On();}
     d5c:	80 91 7a 00 	lds	r24, 0x007A	; 0x80007a <__data_end+0x18>
     d60:	81 11       	cpse	r24, r1
     d62:	07 c0       	rjmp	.+14     	; 0xd72 <_Z11LedControllv+0x6c>
     d64:	80 91 7b 00 	lds	r24, 0x007B	; 0x80007b <__data_end+0x19>
     d68:	81 11       	cpse	r24, r1
     d6a:	03 c0       	rjmp	.+6      	; 0xd72 <_Z11LedControllv+0x6c>
     d6c:	83 e9       	ldi	r24, 0x93	; 147
     d6e:	90 e0       	ldi	r25, 0x00	; 0
     d70:	e2 d0       	rcall	.+452    	; 0xf36 <_ZN6Output2OnEv>
     d72:	08 95       	ret

00000d74 <main>:




int main (void) { //главная цикл программы
	Init();
     d74:	ed dc       	rcall	.-1574   	; 0x750 <_Z4Initv>

	
	while(1) {
		ReadInputs();
     d76:	46 dd       	rcall	.-1396   	; 0x804 <_Z10ReadInputsv>
		
		StartControll();
     d78:	55 dd       	rcall	.-1366   	; 0x824 <_Z13StartControllv>
		StopControll();
     d7a:	66 dd       	rcall	.-1332   	; 0x848 <_Z12StopControllv>
		ReverseControll();
     d7c:	73 dd       	rcall	.-1306   	; 0x864 <_Z15ReverseControllv>
		SpeedControll();
     d7e:	7b dd       	rcall	.-1290   	; 0x876 <_Z13SpeedControllv>
		
		ModeStartTime();
     d80:	07 de       	rcall	.-1010   	; 0x990 <_Z13ModeStartTimev>
		ModeStopTime();
     d82:	d7 de       	rcall	.-594    	; 0xb32 <_Z12ModeStopTimev>
		
		ProtectControll();
     d84:	a9 df       	rcall	.-174    	; 0xcd8 <_Z15ProtectControllv>
		
		Rotor.Activity();
     d86:	82 e6       	ldi	r24, 0x62	; 98
     d88:	90 e0       	ldi	r25, 0x00	; 0
     d8a:	f2 d1       	rcall	.+996    	; 0x1170 <_ZN5Rotor8ActivityEv>

		LedControll();
     d8c:	bc df       	rcall	.-136    	; 0xd06 <_Z11LedControllv>
		
		DidplayFeqSet();
     d8e:	5d dc       	rcall	.-1862   	; 0x64a <_Z13DidplayFeqSetv>
     d90:	f2 cf       	rjmp	.-28     	; 0xd76 <main+0x2>

00000d92 <_ZN6Output4InitEcib>:
#include <avr/io.h>
#include <avr/interrupt.h>


void Output::Init(char port, int pin, bool inv)
{
     d92:	fc 01       	movw	r30, r24
	_port = port;
     d94:	60 83       	st	Z, r22
	_pin = pin;
     d96:	41 83       	std	Z+1, r20	; 0x01
     d98:	52 83       	std	Z+2, r21	; 0x02
	_inv = inv;
     d9a:	23 83       	std	Z+3, r18	; 0x03
	
	if (_inv){
     d9c:	22 23       	and	r18, r18
     d9e:	a1 f1       	breq	.+104    	; 0xe08 <_ZN6Output4InitEcib+0x76>
		switch (_port){
     da0:	63 34       	cpi	r22, 0x43	; 67
     da2:	a1 f0       	breq	.+40     	; 0xdcc <_ZN6Output4InitEcib+0x3a>
     da4:	64 34       	cpi	r22, 0x44	; 68
     da6:	09 f1       	breq	.+66     	; 0xdea <_ZN6Output4InitEcib+0x58>
     da8:	62 34       	cpi	r22, 0x42	; 66
     daa:	09 f0       	breq	.+2      	; 0xdae <_ZN6Output4InitEcib+0x1c>
     dac:	62 c0       	rjmp	.+196    	; 0xe72 <_ZN6Output4InitEcib+0xe0>
			case 'B': PORTB |= (1<<(pin)); DDRB |= (1<<(pin)); break;
     dae:	28 b3       	in	r18, 0x18	; 24
     db0:	81 e0       	ldi	r24, 0x01	; 1
     db2:	90 e0       	ldi	r25, 0x00	; 0
     db4:	02 c0       	rjmp	.+4      	; 0xdba <_ZN6Output4InitEcib+0x28>
     db6:	88 0f       	add	r24, r24
     db8:	99 1f       	adc	r25, r25
     dba:	4a 95       	dec	r20
     dbc:	e2 f7       	brpl	.-8      	; 0xdb6 <_ZN6Output4InitEcib+0x24>
     dbe:	92 2f       	mov	r25, r18
     dc0:	98 2b       	or	r25, r24
     dc2:	98 bb       	out	0x18, r25	; 24
     dc4:	97 b3       	in	r25, 0x17	; 23
     dc6:	89 2b       	or	r24, r25
     dc8:	87 bb       	out	0x17, r24	; 23
     dca:	08 95       	ret
			case 'C': PORTC |= (1<<(pin)); DDRC |= (1<<(pin)); break;
     dcc:	25 b3       	in	r18, 0x15	; 21
     dce:	81 e0       	ldi	r24, 0x01	; 1
     dd0:	90 e0       	ldi	r25, 0x00	; 0
     dd2:	02 c0       	rjmp	.+4      	; 0xdd8 <_ZN6Output4InitEcib+0x46>
     dd4:	88 0f       	add	r24, r24
     dd6:	99 1f       	adc	r25, r25
     dd8:	4a 95       	dec	r20
     dda:	e2 f7       	brpl	.-8      	; 0xdd4 <_ZN6Output4InitEcib+0x42>
     ddc:	92 2f       	mov	r25, r18
     dde:	98 2b       	or	r25, r24
     de0:	95 bb       	out	0x15, r25	; 21
     de2:	94 b3       	in	r25, 0x14	; 20
     de4:	89 2b       	or	r24, r25
     de6:	84 bb       	out	0x14, r24	; 20
     de8:	08 95       	ret
			case 'D': PORTD |= (1<<(pin)); DDRD |= (1<<(pin)); break;
     dea:	22 b3       	in	r18, 0x12	; 18
     dec:	81 e0       	ldi	r24, 0x01	; 1
     dee:	90 e0       	ldi	r25, 0x00	; 0
     df0:	02 c0       	rjmp	.+4      	; 0xdf6 <_ZN6Output4InitEcib+0x64>
     df2:	88 0f       	add	r24, r24
     df4:	99 1f       	adc	r25, r25
     df6:	4a 95       	dec	r20
     df8:	e2 f7       	brpl	.-8      	; 0xdf2 <_ZN6Output4InitEcib+0x60>
     dfa:	92 2f       	mov	r25, r18
     dfc:	98 2b       	or	r25, r24
     dfe:	92 bb       	out	0x12, r25	; 18
     e00:	91 b3       	in	r25, 0x11	; 17
     e02:	89 2b       	or	r24, r25
     e04:	81 bb       	out	0x11, r24	; 17
     e06:	08 95       	ret
		}		
	}else{
		switch (_port){
     e08:	63 34       	cpi	r22, 0x43	; 67
     e0a:	a1 f0       	breq	.+40     	; 0xe34 <_ZN6Output4InitEcib+0xa2>
     e0c:	64 34       	cpi	r22, 0x44	; 68
     e0e:	11 f1       	breq	.+68     	; 0xe54 <_ZN6Output4InitEcib+0xc2>
     e10:	62 34       	cpi	r22, 0x42	; 66
     e12:	79 f5       	brne	.+94     	; 0xe72 <_ZN6Output4InitEcib+0xe0>
			case 'B': PORTB &= ~(1<<(pin)); DDRB |= (1<<(pin)); break;
     e14:	28 b3       	in	r18, 0x18	; 24
     e16:	81 e0       	ldi	r24, 0x01	; 1
     e18:	90 e0       	ldi	r25, 0x00	; 0
     e1a:	02 c0       	rjmp	.+4      	; 0xe20 <_ZN6Output4InitEcib+0x8e>
     e1c:	88 0f       	add	r24, r24
     e1e:	99 1f       	adc	r25, r25
     e20:	4a 95       	dec	r20
     e22:	e2 f7       	brpl	.-8      	; 0xe1c <_ZN6Output4InitEcib+0x8a>
     e24:	98 2f       	mov	r25, r24
     e26:	90 95       	com	r25
     e28:	92 23       	and	r25, r18
     e2a:	98 bb       	out	0x18, r25	; 24
     e2c:	97 b3       	in	r25, 0x17	; 23
     e2e:	89 2b       	or	r24, r25
     e30:	87 bb       	out	0x17, r24	; 23
     e32:	08 95       	ret
			case 'C': PORTC &= ~(1<<(pin)); DDRC |= (1<<(pin)); break;
     e34:	25 b3       	in	r18, 0x15	; 21
     e36:	81 e0       	ldi	r24, 0x01	; 1
     e38:	90 e0       	ldi	r25, 0x00	; 0
     e3a:	02 c0       	rjmp	.+4      	; 0xe40 <_ZN6Output4InitEcib+0xae>
     e3c:	88 0f       	add	r24, r24
     e3e:	99 1f       	adc	r25, r25
     e40:	4a 95       	dec	r20
     e42:	e2 f7       	brpl	.-8      	; 0xe3c <_ZN6Output4InitEcib+0xaa>
     e44:	98 2f       	mov	r25, r24
     e46:	90 95       	com	r25
     e48:	92 23       	and	r25, r18
     e4a:	95 bb       	out	0x15, r25	; 21
     e4c:	94 b3       	in	r25, 0x14	; 20
     e4e:	89 2b       	or	r24, r25
     e50:	84 bb       	out	0x14, r24	; 20
     e52:	08 95       	ret
			case 'D': PORTD &= ~(1<<(pin)); DDRD |= (1<<(pin)); break;
     e54:	22 b3       	in	r18, 0x12	; 18
     e56:	81 e0       	ldi	r24, 0x01	; 1
     e58:	90 e0       	ldi	r25, 0x00	; 0
     e5a:	02 c0       	rjmp	.+4      	; 0xe60 <_ZN6Output4InitEcib+0xce>
     e5c:	88 0f       	add	r24, r24
     e5e:	99 1f       	adc	r25, r25
     e60:	4a 95       	dec	r20
     e62:	e2 f7       	brpl	.-8      	; 0xe5c <_ZN6Output4InitEcib+0xca>
     e64:	98 2f       	mov	r25, r24
     e66:	90 95       	com	r25
     e68:	92 23       	and	r25, r18
     e6a:	92 bb       	out	0x12, r25	; 18
     e6c:	91 b3       	in	r25, 0x11	; 17
     e6e:	89 2b       	or	r24, r25
     e70:	81 bb       	out	0x11, r24	; 17
     e72:	08 95       	ret

00000e74 <_ZN6Output3OffEv>:
		}
	}
	
}

void Output::Off(){
     e74:	fc 01       	movw	r30, r24
	cli();
     e76:	f8 94       	cli
	if (_inv){
     e78:	83 81       	ldd	r24, Z+3	; 0x03
     e7a:	88 23       	and	r24, r24
     e7c:	61 f1       	breq	.+88     	; 0xed6 <_ZN6Output3OffEv+0x62>
		switch (_port){
     e7e:	80 81       	ld	r24, Z
     e80:	83 34       	cpi	r24, 0x43	; 67
     e82:	89 f0       	breq	.+34     	; 0xea6 <_ZN6Output3OffEv+0x32>
     e84:	84 34       	cpi	r24, 0x44	; 68
     e86:	d9 f0       	breq	.+54     	; 0xebe <_ZN6Output3OffEv+0x4a>
     e88:	82 34       	cpi	r24, 0x42	; 66
     e8a:	09 f0       	breq	.+2      	; 0xe8e <_ZN6Output3OffEv+0x1a>
     e8c:	51 c0       	rjmp	.+162    	; 0xf30 <_ZN6Output3OffEv+0xbc>
			case 'B': PORTB |= (1<<(_pin)); break;
     e8e:	28 b3       	in	r18, 0x18	; 24
     e90:	81 e0       	ldi	r24, 0x01	; 1
     e92:	90 e0       	ldi	r25, 0x00	; 0
     e94:	01 80       	ldd	r0, Z+1	; 0x01
     e96:	02 c0       	rjmp	.+4      	; 0xe9c <_ZN6Output3OffEv+0x28>
     e98:	88 0f       	add	r24, r24
     e9a:	99 1f       	adc	r25, r25
     e9c:	0a 94       	dec	r0
     e9e:	e2 f7       	brpl	.-8      	; 0xe98 <_ZN6Output3OffEv+0x24>
     ea0:	82 2b       	or	r24, r18
     ea2:	88 bb       	out	0x18, r24	; 24
     ea4:	45 c0       	rjmp	.+138    	; 0xf30 <_ZN6Output3OffEv+0xbc>
			case 'C': PORTC |= (1<<(_pin)); break;
     ea6:	25 b3       	in	r18, 0x15	; 21
     ea8:	81 e0       	ldi	r24, 0x01	; 1
     eaa:	90 e0       	ldi	r25, 0x00	; 0
     eac:	01 80       	ldd	r0, Z+1	; 0x01
     eae:	02 c0       	rjmp	.+4      	; 0xeb4 <_ZN6Output3OffEv+0x40>
     eb0:	88 0f       	add	r24, r24
     eb2:	99 1f       	adc	r25, r25
     eb4:	0a 94       	dec	r0
     eb6:	e2 f7       	brpl	.-8      	; 0xeb0 <_ZN6Output3OffEv+0x3c>
     eb8:	82 2b       	or	r24, r18
     eba:	85 bb       	out	0x15, r24	; 21
     ebc:	39 c0       	rjmp	.+114    	; 0xf30 <_ZN6Output3OffEv+0xbc>
			case 'D': PORTD |= (1<<(_pin)); break;
     ebe:	22 b3       	in	r18, 0x12	; 18
     ec0:	81 e0       	ldi	r24, 0x01	; 1
     ec2:	90 e0       	ldi	r25, 0x00	; 0
     ec4:	01 80       	ldd	r0, Z+1	; 0x01
     ec6:	02 c0       	rjmp	.+4      	; 0xecc <_ZN6Output3OffEv+0x58>
     ec8:	88 0f       	add	r24, r24
     eca:	99 1f       	adc	r25, r25
     ecc:	0a 94       	dec	r0
     ece:	e2 f7       	brpl	.-8      	; 0xec8 <_ZN6Output3OffEv+0x54>
     ed0:	82 2b       	or	r24, r18
     ed2:	82 bb       	out	0x12, r24	; 18
     ed4:	2d c0       	rjmp	.+90     	; 0xf30 <_ZN6Output3OffEv+0xbc>
		}
		}else{
		switch (_port){
     ed6:	80 81       	ld	r24, Z
     ed8:	83 34       	cpi	r24, 0x43	; 67
     eda:	89 f0       	breq	.+34     	; 0xefe <_ZN6Output3OffEv+0x8a>
     edc:	84 34       	cpi	r24, 0x44	; 68
     ede:	e1 f0       	breq	.+56     	; 0xf18 <_ZN6Output3OffEv+0xa4>
     ee0:	82 34       	cpi	r24, 0x42	; 66
     ee2:	31 f5       	brne	.+76     	; 0xf30 <_ZN6Output3OffEv+0xbc>
			case 'B': PORTB  &= ~(1<<(_pin)); break;
     ee4:	28 b3       	in	r18, 0x18	; 24
     ee6:	81 e0       	ldi	r24, 0x01	; 1
     ee8:	90 e0       	ldi	r25, 0x00	; 0
     eea:	01 80       	ldd	r0, Z+1	; 0x01
     eec:	02 c0       	rjmp	.+4      	; 0xef2 <_ZN6Output3OffEv+0x7e>
     eee:	88 0f       	add	r24, r24
     ef0:	99 1f       	adc	r25, r25
     ef2:	0a 94       	dec	r0
     ef4:	e2 f7       	brpl	.-8      	; 0xeee <_ZN6Output3OffEv+0x7a>
     ef6:	80 95       	com	r24
     ef8:	82 23       	and	r24, r18
     efa:	88 bb       	out	0x18, r24	; 24
     efc:	19 c0       	rjmp	.+50     	; 0xf30 <_ZN6Output3OffEv+0xbc>
			case 'C': PORTC  &= ~(1<<(_pin)); break;
     efe:	25 b3       	in	r18, 0x15	; 21
     f00:	81 e0       	ldi	r24, 0x01	; 1
     f02:	90 e0       	ldi	r25, 0x00	; 0
     f04:	01 80       	ldd	r0, Z+1	; 0x01
     f06:	02 c0       	rjmp	.+4      	; 0xf0c <_ZN6Output3OffEv+0x98>
     f08:	88 0f       	add	r24, r24
     f0a:	99 1f       	adc	r25, r25
     f0c:	0a 94       	dec	r0
     f0e:	e2 f7       	brpl	.-8      	; 0xf08 <_ZN6Output3OffEv+0x94>
     f10:	80 95       	com	r24
     f12:	82 23       	and	r24, r18
     f14:	85 bb       	out	0x15, r24	; 21
     f16:	0c c0       	rjmp	.+24     	; 0xf30 <_ZN6Output3OffEv+0xbc>
			case 'D': PORTD  &= ~(1<<(_pin)); break;
     f18:	22 b3       	in	r18, 0x12	; 18
     f1a:	81 e0       	ldi	r24, 0x01	; 1
     f1c:	90 e0       	ldi	r25, 0x00	; 0
     f1e:	01 80       	ldd	r0, Z+1	; 0x01
     f20:	02 c0       	rjmp	.+4      	; 0xf26 <_ZN6Output3OffEv+0xb2>
     f22:	88 0f       	add	r24, r24
     f24:	99 1f       	adc	r25, r25
     f26:	0a 94       	dec	r0
     f28:	e2 f7       	brpl	.-8      	; 0xf22 <_ZN6Output3OffEv+0xae>
     f2a:	80 95       	com	r24
     f2c:	82 23       	and	r24, r18
     f2e:	82 bb       	out	0x12, r24	; 18
		}
	}
	status = false;
     f30:	14 82       	std	Z+4, r1	; 0x04
	sei();
     f32:	78 94       	sei
     f34:	08 95       	ret

00000f36 <_ZN6Output2OnEv>:
}

void Output::On(){
     f36:	fc 01       	movw	r30, r24
	cli();
     f38:	f8 94       	cli
	if (!_inv){
     f3a:	83 81       	ldd	r24, Z+3	; 0x03
     f3c:	81 11       	cpse	r24, r1
     f3e:	2c c0       	rjmp	.+88     	; 0xf98 <_ZN6Output2OnEv+0x62>
		switch (_port){
     f40:	80 81       	ld	r24, Z
     f42:	83 34       	cpi	r24, 0x43	; 67
     f44:	89 f0       	breq	.+34     	; 0xf68 <_ZN6Output2OnEv+0x32>
     f46:	84 34       	cpi	r24, 0x44	; 68
     f48:	d9 f0       	breq	.+54     	; 0xf80 <_ZN6Output2OnEv+0x4a>
     f4a:	82 34       	cpi	r24, 0x42	; 66
     f4c:	09 f0       	breq	.+2      	; 0xf50 <_ZN6Output2OnEv+0x1a>
     f4e:	51 c0       	rjmp	.+162    	; 0xff2 <_ZN6Output2OnEv+0xbc>
			case 'B': PORTB |= (1<<(_pin)); break;
     f50:	28 b3       	in	r18, 0x18	; 24
     f52:	81 e0       	ldi	r24, 0x01	; 1
     f54:	90 e0       	ldi	r25, 0x00	; 0
     f56:	01 80       	ldd	r0, Z+1	; 0x01
     f58:	02 c0       	rjmp	.+4      	; 0xf5e <_ZN6Output2OnEv+0x28>
     f5a:	88 0f       	add	r24, r24
     f5c:	99 1f       	adc	r25, r25
     f5e:	0a 94       	dec	r0
     f60:	e2 f7       	brpl	.-8      	; 0xf5a <_ZN6Output2OnEv+0x24>
     f62:	82 2b       	or	r24, r18
     f64:	88 bb       	out	0x18, r24	; 24
     f66:	45 c0       	rjmp	.+138    	; 0xff2 <_ZN6Output2OnEv+0xbc>
			case 'C': PORTC |= (1<<(_pin)); break;
     f68:	25 b3       	in	r18, 0x15	; 21
     f6a:	81 e0       	ldi	r24, 0x01	; 1
     f6c:	90 e0       	ldi	r25, 0x00	; 0
     f6e:	01 80       	ldd	r0, Z+1	; 0x01
     f70:	02 c0       	rjmp	.+4      	; 0xf76 <_ZN6Output2OnEv+0x40>
     f72:	88 0f       	add	r24, r24
     f74:	99 1f       	adc	r25, r25
     f76:	0a 94       	dec	r0
     f78:	e2 f7       	brpl	.-8      	; 0xf72 <_ZN6Output2OnEv+0x3c>
     f7a:	82 2b       	or	r24, r18
     f7c:	85 bb       	out	0x15, r24	; 21
     f7e:	39 c0       	rjmp	.+114    	; 0xff2 <_ZN6Output2OnEv+0xbc>
			case 'D': PORTD |= (1<<(_pin)); break;
     f80:	22 b3       	in	r18, 0x12	; 18
     f82:	81 e0       	ldi	r24, 0x01	; 1
     f84:	90 e0       	ldi	r25, 0x00	; 0
     f86:	01 80       	ldd	r0, Z+1	; 0x01
     f88:	02 c0       	rjmp	.+4      	; 0xf8e <_ZN6Output2OnEv+0x58>
     f8a:	88 0f       	add	r24, r24
     f8c:	99 1f       	adc	r25, r25
     f8e:	0a 94       	dec	r0
     f90:	e2 f7       	brpl	.-8      	; 0xf8a <_ZN6Output2OnEv+0x54>
     f92:	82 2b       	or	r24, r18
     f94:	82 bb       	out	0x12, r24	; 18
     f96:	2d c0       	rjmp	.+90     	; 0xff2 <_ZN6Output2OnEv+0xbc>
		}
		}else{
		switch (_port){
     f98:	80 81       	ld	r24, Z
     f9a:	83 34       	cpi	r24, 0x43	; 67
     f9c:	89 f0       	breq	.+34     	; 0xfc0 <_ZN6Output2OnEv+0x8a>
     f9e:	84 34       	cpi	r24, 0x44	; 68
     fa0:	e1 f0       	breq	.+56     	; 0xfda <_ZN6Output2OnEv+0xa4>
     fa2:	82 34       	cpi	r24, 0x42	; 66
     fa4:	31 f5       	brne	.+76     	; 0xff2 <_ZN6Output2OnEv+0xbc>
			case 'B': PORTB  &= ~(1<<(_pin)); break;
     fa6:	28 b3       	in	r18, 0x18	; 24
     fa8:	81 e0       	ldi	r24, 0x01	; 1
     faa:	90 e0       	ldi	r25, 0x00	; 0
     fac:	01 80       	ldd	r0, Z+1	; 0x01
     fae:	02 c0       	rjmp	.+4      	; 0xfb4 <_ZN6Output2OnEv+0x7e>
     fb0:	88 0f       	add	r24, r24
     fb2:	99 1f       	adc	r25, r25
     fb4:	0a 94       	dec	r0
     fb6:	e2 f7       	brpl	.-8      	; 0xfb0 <_ZN6Output2OnEv+0x7a>
     fb8:	80 95       	com	r24
     fba:	82 23       	and	r24, r18
     fbc:	88 bb       	out	0x18, r24	; 24
     fbe:	19 c0       	rjmp	.+50     	; 0xff2 <_ZN6Output2OnEv+0xbc>
			case 'C': PORTC  &= ~(1<<(_pin)); break;
     fc0:	25 b3       	in	r18, 0x15	; 21
     fc2:	81 e0       	ldi	r24, 0x01	; 1
     fc4:	90 e0       	ldi	r25, 0x00	; 0
     fc6:	01 80       	ldd	r0, Z+1	; 0x01
     fc8:	02 c0       	rjmp	.+4      	; 0xfce <_ZN6Output2OnEv+0x98>
     fca:	88 0f       	add	r24, r24
     fcc:	99 1f       	adc	r25, r25
     fce:	0a 94       	dec	r0
     fd0:	e2 f7       	brpl	.-8      	; 0xfca <_ZN6Output2OnEv+0x94>
     fd2:	80 95       	com	r24
     fd4:	82 23       	and	r24, r18
     fd6:	85 bb       	out	0x15, r24	; 21
     fd8:	0c c0       	rjmp	.+24     	; 0xff2 <_ZN6Output2OnEv+0xbc>
			case 'D': PORTD  &= ~(1<<(_pin)); break;
     fda:	22 b3       	in	r18, 0x12	; 18
     fdc:	81 e0       	ldi	r24, 0x01	; 1
     fde:	90 e0       	ldi	r25, 0x00	; 0
     fe0:	01 80       	ldd	r0, Z+1	; 0x01
     fe2:	02 c0       	rjmp	.+4      	; 0xfe8 <_ZN6Output2OnEv+0xb2>
     fe4:	88 0f       	add	r24, r24
     fe6:	99 1f       	adc	r25, r25
     fe8:	0a 94       	dec	r0
     fea:	e2 f7       	brpl	.-8      	; 0xfe4 <_ZN6Output2OnEv+0xae>
     fec:	80 95       	com	r24
     fee:	82 23       	and	r24, r18
     ff0:	82 bb       	out	0x12, r24	; 18
		}
	}
	status = true;
     ff2:	81 e0       	ldi	r24, 0x01	; 1
     ff4:	84 83       	std	Z+4, r24	; 0x04
	sei();
     ff6:	78 94       	sei
     ff8:	08 95       	ret

00000ffa <_ZN5Rotor12SetFrequencyEi>:
	StopingTime =1000;
	StaringTiming = 1;
	phasa=1;
}

void Rotor::SetFrequency(int freq){
     ffa:	cf 93       	push	r28
     ffc:	df 93       	push	r29
     ffe:	ec 01       	movw	r28, r24
	frequency = freq; // 8.000.000/256/6 = 5208 Гц 
    1000:	9b 01       	movw	r18, r22
    1002:	77 0f       	add	r23, r23
    1004:	44 0b       	sbc	r20, r20
    1006:	55 0b       	sbc	r21, r21
    1008:	28 83       	st	Y, r18
    100a:	39 83       	std	Y+1, r19	; 0x01
    100c:	4a 83       	std	Y+2, r20	; 0x02
    100e:	5b 83       	std	Y+3, r21	; 0x03
	int OCR_dev;
	OCR_dev = 5208/frequency;
	OCR1A = OCR_dev;
    1010:	68 e5       	ldi	r22, 0x58	; 88
    1012:	74 e1       	ldi	r23, 0x14	; 20
    1014:	80 e0       	ldi	r24, 0x00	; 0
    1016:	90 e0       	ldi	r25, 0x00	; 0
    1018:	7d d3       	rcall	.+1786   	; 0x1714 <__udivmodsi4>
    101a:	3b bd       	out	0x2b, r19	; 43
    101c:	2a bd       	out	0x2a, r18	; 42
	
	if (frequency>=1&&frequency<5){C_PWM = 90;}
    101e:	88 81       	ld	r24, Y
    1020:	99 81       	ldd	r25, Y+1	; 0x01
    1022:	aa 81       	ldd	r26, Y+2	; 0x02
    1024:	bb 81       	ldd	r27, Y+3	; 0x03
    1026:	01 97       	sbiw	r24, 0x01	; 1
    1028:	a1 09       	sbc	r26, r1
    102a:	b1 09       	sbc	r27, r1
    102c:	04 97       	sbiw	r24, 0x04	; 4
    102e:	a1 05       	cpc	r26, r1
    1030:	b1 05       	cpc	r27, r1
    1032:	10 f4       	brcc	.+4      	; 0x1038 <_ZN5Rotor12SetFrequencyEi+0x3e>
    1034:	8a e5       	ldi	r24, 0x5A	; 90
    1036:	83 bd       	out	0x23, r24	; 35
	if (frequency>=5&&frequency<10){C_PWM = 100;}
    1038:	88 81       	ld	r24, Y
    103a:	99 81       	ldd	r25, Y+1	; 0x01
    103c:	aa 81       	ldd	r26, Y+2	; 0x02
    103e:	bb 81       	ldd	r27, Y+3	; 0x03
    1040:	05 97       	sbiw	r24, 0x05	; 5
    1042:	a1 09       	sbc	r26, r1
    1044:	b1 09       	sbc	r27, r1
    1046:	05 97       	sbiw	r24, 0x05	; 5
    1048:	a1 05       	cpc	r26, r1
    104a:	b1 05       	cpc	r27, r1
    104c:	10 f4       	brcc	.+4      	; 0x1052 <_ZN5Rotor12SetFrequencyEi+0x58>
    104e:	84 e6       	ldi	r24, 0x64	; 100
    1050:	83 bd       	out	0x23, r24	; 35
	if (frequency>=10&&frequency<20){C_PWM = 130;}
    1052:	88 81       	ld	r24, Y
    1054:	99 81       	ldd	r25, Y+1	; 0x01
    1056:	aa 81       	ldd	r26, Y+2	; 0x02
    1058:	bb 81       	ldd	r27, Y+3	; 0x03
    105a:	0a 97       	sbiw	r24, 0x0a	; 10
    105c:	a1 09       	sbc	r26, r1
    105e:	b1 09       	sbc	r27, r1
    1060:	0a 97       	sbiw	r24, 0x0a	; 10
    1062:	a1 05       	cpc	r26, r1
    1064:	b1 05       	cpc	r27, r1
    1066:	10 f4       	brcc	.+4      	; 0x106c <_ZN5Rotor12SetFrequencyEi+0x72>
    1068:	82 e8       	ldi	r24, 0x82	; 130
    106a:	83 bd       	out	0x23, r24	; 35
	if (frequency>=20&&frequency<30){C_PWM = 150;}
    106c:	88 81       	ld	r24, Y
    106e:	99 81       	ldd	r25, Y+1	; 0x01
    1070:	aa 81       	ldd	r26, Y+2	; 0x02
    1072:	bb 81       	ldd	r27, Y+3	; 0x03
    1074:	44 97       	sbiw	r24, 0x14	; 20
    1076:	a1 09       	sbc	r26, r1
    1078:	b1 09       	sbc	r27, r1
    107a:	0a 97       	sbiw	r24, 0x0a	; 10
    107c:	a1 05       	cpc	r26, r1
    107e:	b1 05       	cpc	r27, r1
    1080:	10 f4       	brcc	.+4      	; 0x1086 <_ZN5Rotor12SetFrequencyEi+0x8c>
    1082:	86 e9       	ldi	r24, 0x96	; 150
    1084:	83 bd       	out	0x23, r24	; 35
	if (frequency>=30&&frequency<40){C_PWM = 200;}
    1086:	88 81       	ld	r24, Y
    1088:	99 81       	ldd	r25, Y+1	; 0x01
    108a:	aa 81       	ldd	r26, Y+2	; 0x02
    108c:	bb 81       	ldd	r27, Y+3	; 0x03
    108e:	4e 97       	sbiw	r24, 0x1e	; 30
    1090:	a1 09       	sbc	r26, r1
    1092:	b1 09       	sbc	r27, r1
    1094:	0a 97       	sbiw	r24, 0x0a	; 10
    1096:	a1 05       	cpc	r26, r1
    1098:	b1 05       	cpc	r27, r1
    109a:	10 f4       	brcc	.+4      	; 0x10a0 <_ZN5Rotor12SetFrequencyEi+0xa6>
    109c:	88 ec       	ldi	r24, 0xC8	; 200
    109e:	83 bd       	out	0x23, r24	; 35
	if (frequency>=40&&frequency<50){C_PWM = 200;}
    10a0:	88 81       	ld	r24, Y
    10a2:	99 81       	ldd	r25, Y+1	; 0x01
    10a4:	aa 81       	ldd	r26, Y+2	; 0x02
    10a6:	bb 81       	ldd	r27, Y+3	; 0x03
    10a8:	88 97       	sbiw	r24, 0x28	; 40
    10aa:	a1 09       	sbc	r26, r1
    10ac:	b1 09       	sbc	r27, r1
    10ae:	0a 97       	sbiw	r24, 0x0a	; 10
    10b0:	a1 05       	cpc	r26, r1
    10b2:	b1 05       	cpc	r27, r1
    10b4:	10 f4       	brcc	.+4      	; 0x10ba <_ZN5Rotor12SetFrequencyEi+0xc0>
    10b6:	88 ec       	ldi	r24, 0xC8	; 200
    10b8:	83 bd       	out	0x23, r24	; 35
	if (frequency>=50){C_PWM = 255;}
    10ba:	88 81       	ld	r24, Y
    10bc:	99 81       	ldd	r25, Y+1	; 0x01
    10be:	aa 81       	ldd	r26, Y+2	; 0x02
    10c0:	bb 81       	ldd	r27, Y+3	; 0x03
    10c2:	c2 97       	sbiw	r24, 0x32	; 50
    10c4:	a1 05       	cpc	r26, r1
    10c6:	b1 05       	cpc	r27, r1
    10c8:	10 f0       	brcs	.+4      	; 0x10ce <_ZN5Rotor12SetFrequencyEi+0xd4>
    10ca:	8f ef       	ldi	r24, 0xFF	; 255
    10cc:	83 bd       	out	0x23, r24	; 35
	//if (frequency>=20&&frequency<30){C_PWM = 90;}
	//if (frequency>=30&&frequency<40){C_PWM = 110;}	
	//if (frequency>=40&&frequency<50){C_PWM = 130;}
	//if (frequency>=50){C_PWM = 255;}	

}
    10ce:	df 91       	pop	r29
    10d0:	cf 91       	pop	r28
    10d2:	08 95       	ret

000010d4 <_ZN5Rotor4InitEv>:
const int CH = PB4;
const int CL = PB5;



void Rotor::Init(){
    10d4:	cf 92       	push	r12
    10d6:	df 92       	push	r13
    10d8:	ef 92       	push	r14
    10da:	ff 92       	push	r15
    10dc:	cf 93       	push	r28
    10de:	df 93       	push	r29
    10e0:	ec 01       	movw	r28, r24
	workfrequency = 40;
    10e2:	88 e2       	ldi	r24, 0x28	; 40
    10e4:	90 e0       	ldi	r25, 0x00	; 0
    10e6:	a0 e0       	ldi	r26, 0x00	; 0
    10e8:	b0 e0       	ldi	r27, 0x00	; 0
    10ea:	8c 83       	std	Y+4, r24	; 0x04
    10ec:	9d 83       	std	Y+5, r25	; 0x05
    10ee:	ae 83       	std	Y+6, r26	; 0x06
    10f0:	bf 83       	std	Y+7, r27	; 0x07
	minfrequency = 1;
    10f2:	c1 2c       	mov	r12, r1
    10f4:	d1 2c       	mov	r13, r1
    10f6:	76 01       	movw	r14, r12
    10f8:	c3 94       	inc	r12
    10fa:	c8 86       	std	Y+8, r12	; 0x08
    10fc:	d9 86       	std	Y+9, r13	; 0x09
    10fe:	ea 86       	std	Y+10, r14	; 0x0a
    1100:	fb 86       	std	Y+11, r15	; 0x0b
	maxfrequency = 150;
    1102:	86 e9       	ldi	r24, 0x96	; 150
    1104:	90 e0       	ldi	r25, 0x00	; 0
    1106:	a0 e0       	ldi	r26, 0x00	; 0
    1108:	b0 e0       	ldi	r27, 0x00	; 0
    110a:	8c 87       	std	Y+12, r24	; 0x0c
    110c:	9d 87       	std	Y+13, r25	; 0x0d
    110e:	ae 87       	std	Y+14, r26	; 0x0e
    1110:	bf 87       	std	Y+15, r27	; 0x0f
	minStartStopTime = 100;
    1112:	84 e6       	ldi	r24, 0x64	; 100
    1114:	90 e0       	ldi	r25, 0x00	; 0
    1116:	a0 e0       	ldi	r26, 0x00	; 0
    1118:	b0 e0       	ldi	r27, 0x00	; 0
    111a:	88 8b       	std	Y+16, r24	; 0x10
    111c:	99 8b       	std	Y+17, r25	; 0x11
    111e:	aa 8b       	std	Y+18, r26	; 0x12
    1120:	bb 8b       	std	Y+19, r27	; 0x13
	maxStartStopTime = 30000;
    1122:	80 e3       	ldi	r24, 0x30	; 48
    1124:	95 e7       	ldi	r25, 0x75	; 117
    1126:	a0 e0       	ldi	r26, 0x00	; 0
    1128:	b0 e0       	ldi	r27, 0x00	; 0
    112a:	8c 8b       	std	Y+20, r24	; 0x14
    112c:	9d 8b       	std	Y+21, r25	; 0x15
    112e:	ae 8b       	std	Y+22, r26	; 0x16
    1130:	bf 8b       	std	Y+23, r27	; 0x17
	SetFrequency(workfrequency);
    1132:	68 e2       	ldi	r22, 0x28	; 40
    1134:	70 e0       	ldi	r23, 0x00	; 0
    1136:	ce 01       	movw	r24, r28
    1138:	60 df       	rcall	.-320    	; 0xffa <_ZN5Rotor12SetFrequencyEi>
	StaringTime =1000;
    113a:	88 ee       	ldi	r24, 0xE8	; 232
    113c:	93 e0       	ldi	r25, 0x03	; 3
    113e:	a0 e0       	ldi	r26, 0x00	; 0
    1140:	b0 e0       	ldi	r27, 0x00	; 0
    1142:	8d 8f       	std	Y+29, r24	; 0x1d
    1144:	9e 8f       	std	Y+30, r25	; 0x1e
    1146:	af 8f       	std	Y+31, r26	; 0x1f
    1148:	b8 a3       	std	Y+32, r27	; 0x20
	StopingTime =1000;
    114a:	8d a3       	std	Y+37, r24	; 0x25
    114c:	9e a3       	std	Y+38, r25	; 0x26
    114e:	af a3       	std	Y+39, r26	; 0x27
    1150:	b8 a7       	std	Y+40, r27	; 0x28
	StaringTiming = 1;
    1152:	c9 a2       	std	Y+33, r12	; 0x21
    1154:	da a2       	std	Y+34, r13	; 0x22
    1156:	eb a2       	std	Y+35, r14	; 0x23
    1158:	fc a2       	std	Y+36, r15	; 0x24
	phasa=1;
    115a:	81 e0       	ldi	r24, 0x01	; 1
    115c:	90 e0       	ldi	r25, 0x00	; 0
    115e:	9a a7       	std	Y+42, r25	; 0x2a
    1160:	89 a7       	std	Y+41, r24	; 0x29
}
    1162:	df 91       	pop	r29
    1164:	cf 91       	pop	r28
    1166:	ff 90       	pop	r15
    1168:	ef 90       	pop	r14
    116a:	df 90       	pop	r13
    116c:	cf 90       	pop	r12
    116e:	08 95       	ret

00001170 <_ZN5Rotor8ActivityEv>:
	//if (frequency>=40&&frequency<50){C_PWM = 130;}
	//if (frequency>=50){C_PWM = 255;}	

}

void Rotor::Activity(){
    1170:	4f 92       	push	r4
    1172:	5f 92       	push	r5
    1174:	6f 92       	push	r6
    1176:	7f 92       	push	r7
    1178:	8f 92       	push	r8
    117a:	9f 92       	push	r9
    117c:	af 92       	push	r10
    117e:	bf 92       	push	r11
    1180:	cf 92       	push	r12
    1182:	df 92       	push	r13
    1184:	ef 92       	push	r14
    1186:	ff 92       	push	r15
    1188:	cf 93       	push	r28
    118a:	df 93       	push	r29
    118c:	00 d0       	rcall	.+0      	; 0x118e <_ZN5Rotor8ActivityEv+0x1e>
    118e:	00 d0       	rcall	.+0      	; 0x1190 <_ZN5Rotor8ActivityEv+0x20>
    1190:	00 d0       	rcall	.+0      	; 0x1192 <_ZN5Rotor8ActivityEv+0x22>
    1192:	cd b7       	in	r28, 0x3d	; 61
    1194:	de b7       	in	r29, 0x3e	; 62
    1196:	9e 83       	std	Y+6, r25	; 0x06
    1198:	8d 83       	std	Y+5, r24	; 0x05
	
	if (Starting&&Stoping){
    119a:	dc 01       	movw	r26, r24
    119c:	58 96       	adiw	r26, 0x18	; 24
    119e:	8c 91       	ld	r24, X
    11a0:	58 97       	sbiw	r26, 0x18	; 24
    11a2:	88 23       	and	r24, r24
    11a4:	39 f0       	breq	.+14     	; 0x11b4 <_ZN5Rotor8ActivityEv+0x44>
    11a6:	59 96       	adiw	r26, 0x19	; 25
    11a8:	8c 91       	ld	r24, X
    11aa:	59 97       	sbiw	r26, 0x19	; 25
    11ac:	88 23       	and	r24, r24
    11ae:	11 f0       	breq	.+4      	; 0x11b4 <_ZN5Rotor8ActivityEv+0x44>
		Starting=false;
    11b0:	58 96       	adiw	r26, 0x18	; 24
    11b2:	1c 92       	st	X, r1
	}
	
	if (Reversing&&!Started){
    11b4:	ed 81       	ldd	r30, Y+5	; 0x05
    11b6:	fe 81       	ldd	r31, Y+6	; 0x06
    11b8:	82 8d       	ldd	r24, Z+26	; 0x1a
    11ba:	88 23       	and	r24, r24
    11bc:	81 f0       	breq	.+32     	; 0x11de <_ZN5Rotor8ActivityEv+0x6e>
    11be:	83 8d       	ldd	r24, Z+27	; 0x1b
    11c0:	81 11       	cpse	r24, r1
    11c2:	f3 c0       	rjmp	.+486    	; 0x13aa <_ZN5Rotor8ActivityEv+0x23a>
		if (!Reverse){
    11c4:	84 8d       	ldd	r24, Z+28	; 0x1c
    11c6:	81 11       	cpse	r24, r1
    11c8:	03 c0       	rjmp	.+6      	; 0x11d0 <_ZN5Rotor8ActivityEv+0x60>
			 Reverse = true;
    11ca:	81 e0       	ldi	r24, 0x01	; 1
    11cc:	84 8f       	std	Z+28, r24	; 0x1c
    11ce:	04 c0       	rjmp	.+8      	; 0x11d8 <_ZN5Rotor8ActivityEv+0x68>
		}else{
			Reverse = false;
    11d0:	ad 81       	ldd	r26, Y+5	; 0x05
    11d2:	be 81       	ldd	r27, Y+6	; 0x06
    11d4:	5c 96       	adiw	r26, 0x1c	; 28
    11d6:	1c 92       	st	X, r1
		}		
		Reversing = false;
    11d8:	ed 81       	ldd	r30, Y+5	; 0x05
    11da:	fe 81       	ldd	r31, Y+6	; 0x06
    11dc:	12 8e       	std	Z+26, r1	; 0x1a
	
	if (Reversing&&Started){
		Stoping = true;
	}
	
	if (Starting){
    11de:	ad 81       	ldd	r26, Y+5	; 0x05
    11e0:	be 81       	ldd	r27, Y+6	; 0x06
    11e2:	58 96       	adiw	r26, 0x18	; 24
    11e4:	8c 91       	ld	r24, X
    11e6:	58 97       	sbiw	r26, 0x18	; 24
    11e8:	88 23       	and	r24, r24
    11ea:	09 f4       	brne	.+2      	; 0x11ee <_ZN5Rotor8ActivityEv+0x7e>
    11ec:	5f c0       	rjmp	.+190    	; 0x12ac <_ZN5Rotor8ActivityEv+0x13c>
	#else
		//round up by default
		__ticks_dc = (uint32_t)(ceil(fabs(__tmp)));
	#endif

	__builtin_avr_delay_cycles(__ticks_dc);
    11ee:	eb ed       	ldi	r30, 0xDB	; 219
    11f0:	f5 e0       	ldi	r31, 0x05	; 5
    11f2:	31 97       	sbiw	r30, 0x01	; 1
    11f4:	f1 f7       	brne	.-4      	; 0x11f2 <_ZN5Rotor8ActivityEv+0x82>
    11f6:	00 c0       	rjmp	.+0      	; 0x11f8 <_ZN5Rotor8ActivityEv+0x88>
    11f8:	00 00       	nop
		_delay_us(750);
		StaringTiming++;	
    11fa:	91 96       	adiw	r26, 0x21	; 33
    11fc:	cd 90       	ld	r12, X+
    11fe:	dd 90       	ld	r13, X+
    1200:	ed 90       	ld	r14, X+
    1202:	fc 90       	ld	r15, X
    1204:	94 97       	sbiw	r26, 0x24	; 36
    1206:	ff ef       	ldi	r31, 0xFF	; 255
    1208:	cf 1a       	sub	r12, r31
    120a:	df 0a       	sbc	r13, r31
    120c:	ef 0a       	sbc	r14, r31
    120e:	ff 0a       	sbc	r15, r31
    1210:	ad 81       	ldd	r26, Y+5	; 0x05
    1212:	be 81       	ldd	r27, Y+6	; 0x06
    1214:	91 96       	adiw	r26, 0x21	; 33
    1216:	cd 92       	st	X+, r12
    1218:	dd 92       	st	X+, r13
    121a:	ed 92       	st	X+, r14
    121c:	fc 92       	st	X, r15
    121e:	94 97       	sbiw	r26, 0x24	; 36
		frequency = (StaringTiming*(workfrequency-minfrequency))/StaringTime + minfrequency;			
    1220:	18 96       	adiw	r26, 0x08	; 8
    1222:	8d 90       	ld	r8, X+
    1224:	9d 90       	ld	r9, X+
    1226:	ad 90       	ld	r10, X+
    1228:	bc 90       	ld	r11, X
    122a:	1b 97       	sbiw	r26, 0x0b	; 11
    122c:	5d 96       	adiw	r26, 0x1d	; 29
    122e:	4d 90       	ld	r4, X+
    1230:	5d 90       	ld	r5, X+
    1232:	6d 90       	ld	r6, X+
    1234:	7c 90       	ld	r7, X
    1236:	90 97       	sbiw	r26, 0x20	; 32
    1238:	fd 01       	movw	r30, r26
    123a:	84 81       	ldd	r24, Z+4	; 0x04
    123c:	95 81       	ldd	r25, Z+5	; 0x05
    123e:	a6 81       	ldd	r26, Z+6	; 0x06
    1240:	b7 81       	ldd	r27, Z+7	; 0x07
    1242:	9c 01       	movw	r18, r24
    1244:	ad 01       	movw	r20, r26
    1246:	28 19       	sub	r18, r8
    1248:	39 09       	sbc	r19, r9
    124a:	4a 09       	sbc	r20, r10
    124c:	5b 09       	sbc	r21, r11
    124e:	c7 01       	movw	r24, r14
    1250:	b6 01       	movw	r22, r12
    1252:	51 d2       	rcall	.+1186   	; 0x16f6 <__mulsi3>
    1254:	a3 01       	movw	r20, r6
    1256:	92 01       	movw	r18, r4
    1258:	5d d2       	rcall	.+1210   	; 0x1714 <__udivmodsi4>
    125a:	da 01       	movw	r26, r20
    125c:	c9 01       	movw	r24, r18
    125e:	88 0d       	add	r24, r8
    1260:	99 1d       	adc	r25, r9
    1262:	aa 1d       	adc	r26, r10
    1264:	bb 1d       	adc	r27, r11
		if (frequency == 0){frequency = minfrequency;}
    1266:	00 97       	sbiw	r24, 0x00	; 0
    1268:	a1 05       	cpc	r26, r1
    126a:	b1 05       	cpc	r27, r1
    126c:	39 f0       	breq	.+14     	; 0x127c <_ZN5Rotor8ActivityEv+0x10c>
	}
	
	if (Starting){
		_delay_us(750);
		StaringTiming++;	
		frequency = (StaringTiming*(workfrequency-minfrequency))/StaringTime + minfrequency;			
    126e:	ed 81       	ldd	r30, Y+5	; 0x05
    1270:	fe 81       	ldd	r31, Y+6	; 0x06
    1272:	80 83       	st	Z, r24
    1274:	91 83       	std	Z+1, r25	; 0x01
    1276:	a2 83       	std	Z+2, r26	; 0x02
    1278:	b3 83       	std	Z+3, r27	; 0x03
    127a:	07 c0       	rjmp	.+14     	; 0x128a <_ZN5Rotor8ActivityEv+0x11a>
		if (frequency == 0){frequency = minfrequency;}
    127c:	ad 81       	ldd	r26, Y+5	; 0x05
    127e:	be 81       	ldd	r27, Y+6	; 0x06
    1280:	8d 92       	st	X+, r8
    1282:	9d 92       	st	X+, r9
    1284:	ad 92       	st	X+, r10
    1286:	bc 92       	st	X, r11
    1288:	13 97       	sbiw	r26, 0x03	; 3
	
		if (StaringTiming>StaringTime){
    128a:	4c 14       	cp	r4, r12
    128c:	5d 04       	cpc	r5, r13
    128e:	6e 04       	cpc	r6, r14
    1290:	7f 04       	cpc	r7, r15
    1292:	60 f4       	brcc	.+24     	; 0x12ac <_ZN5Rotor8ActivityEv+0x13c>
			StaringTiming = 1;
    1294:	81 e0       	ldi	r24, 0x01	; 1
    1296:	90 e0       	ldi	r25, 0x00	; 0
    1298:	a0 e0       	ldi	r26, 0x00	; 0
    129a:	b0 e0       	ldi	r27, 0x00	; 0
    129c:	ed 81       	ldd	r30, Y+5	; 0x05
    129e:	fe 81       	ldd	r31, Y+6	; 0x06
    12a0:	81 a3       	std	Z+33, r24	; 0x21
    12a2:	92 a3       	std	Z+34, r25	; 0x22
    12a4:	a3 a3       	std	Z+35, r26	; 0x23
    12a6:	b4 a3       	std	Z+36, r27	; 0x24
			Started = true;
    12a8:	83 8f       	std	Z+27, r24	; 0x1b
			Starting =false;
    12aa:	10 8e       	std	Z+24, r1	; 0x18
		}
	}

	if (Stoping){
    12ac:	ad 81       	ldd	r26, Y+5	; 0x05
    12ae:	be 81       	ldd	r27, Y+6	; 0x06
    12b0:	59 96       	adiw	r26, 0x19	; 25
    12b2:	8c 91       	ld	r24, X
    12b4:	59 97       	sbiw	r26, 0x19	; 25
    12b6:	88 23       	and	r24, r24
    12b8:	09 f4       	brne	.+2      	; 0x12bc <_ZN5Rotor8ActivityEv+0x14c>
    12ba:	7c c0       	rjmp	.+248    	; 0x13b4 <_ZN5Rotor8ActivityEv+0x244>
    12bc:	eb ed       	ldi	r30, 0xDB	; 219
    12be:	f5 e0       	ldi	r31, 0x05	; 5
    12c0:	31 97       	sbiw	r30, 0x01	; 1
    12c2:	f1 f7       	brne	.-4      	; 0x12c0 <_ZN5Rotor8ActivityEv+0x150>
    12c4:	00 c0       	rjmp	.+0      	; 0x12c6 <_ZN5Rotor8ActivityEv+0x156>
    12c6:	00 00       	nop
		_delay_us(750);
		StaringTiming++;
    12c8:	91 96       	adiw	r26, 0x21	; 33
    12ca:	cd 90       	ld	r12, X+
    12cc:	dd 90       	ld	r13, X+
    12ce:	ed 90       	ld	r14, X+
    12d0:	fc 90       	ld	r15, X
    12d2:	94 97       	sbiw	r26, 0x24	; 36
    12d4:	ff ef       	ldi	r31, 0xFF	; 255
    12d6:	cf 1a       	sub	r12, r31
    12d8:	df 0a       	sbc	r13, r31
    12da:	ef 0a       	sbc	r14, r31
    12dc:	ff 0a       	sbc	r15, r31
    12de:	ad 81       	ldd	r26, Y+5	; 0x05
    12e0:	be 81       	ldd	r27, Y+6	; 0x06
    12e2:	91 96       	adiw	r26, 0x21	; 33
    12e4:	cd 92       	st	X+, r12
    12e6:	dd 92       	st	X+, r13
    12e8:	ed 92       	st	X+, r14
    12ea:	fc 92       	st	X, r15
    12ec:	94 97       	sbiw	r26, 0x24	; 36
		frequency = workfrequency - ((StaringTiming*(workfrequency-minfrequency))/StopingTime);
    12ee:	14 96       	adiw	r26, 0x04	; 4
    12f0:	8d 90       	ld	r8, X+
    12f2:	9d 90       	ld	r9, X+
    12f4:	ad 90       	ld	r10, X+
    12f6:	bc 90       	ld	r11, X
    12f8:	17 97       	sbiw	r26, 0x07	; 7
    12fa:	18 96       	adiw	r26, 0x08	; 8
    12fc:	4d 90       	ld	r4, X+
    12fe:	5d 90       	ld	r5, X+
    1300:	6d 90       	ld	r6, X+
    1302:	7c 90       	ld	r7, X
    1304:	1b 97       	sbiw	r26, 0x0b	; 11
    1306:	95 96       	adiw	r26, 0x25	; 37
    1308:	8d 91       	ld	r24, X+
    130a:	9d 91       	ld	r25, X+
    130c:	0d 90       	ld	r0, X+
    130e:	bc 91       	ld	r27, X
    1310:	a0 2d       	mov	r26, r0
    1312:	89 83       	std	Y+1, r24	; 0x01
    1314:	9a 83       	std	Y+2, r25	; 0x02
    1316:	ab 83       	std	Y+3, r26	; 0x03
    1318:	bc 83       	std	Y+4, r27	; 0x04
    131a:	a5 01       	movw	r20, r10
    131c:	94 01       	movw	r18, r8
    131e:	24 19       	sub	r18, r4
    1320:	35 09       	sbc	r19, r5
    1322:	46 09       	sbc	r20, r6
    1324:	57 09       	sbc	r21, r7
    1326:	c7 01       	movw	r24, r14
    1328:	b6 01       	movw	r22, r12
    132a:	e5 d1       	rcall	.+970    	; 0x16f6 <__mulsi3>
    132c:	29 81       	ldd	r18, Y+1	; 0x01
    132e:	3a 81       	ldd	r19, Y+2	; 0x02
    1330:	4b 81       	ldd	r20, Y+3	; 0x03
    1332:	5c 81       	ldd	r21, Y+4	; 0x04
    1334:	ef d1       	rcall	.+990    	; 0x1714 <__udivmodsi4>
    1336:	82 1a       	sub	r8, r18
    1338:	93 0a       	sbc	r9, r19
    133a:	a4 0a       	sbc	r10, r20
    133c:	b5 0a       	sbc	r11, r21
		if (frequency == 0){frequency = minfrequency;}
    133e:	39 f0       	breq	.+14     	; 0x134e <_ZN5Rotor8ActivityEv+0x1de>
	}

	if (Stoping){
		_delay_us(750);
		StaringTiming++;
		frequency = workfrequency - ((StaringTiming*(workfrequency-minfrequency))/StopingTime);
    1340:	ed 81       	ldd	r30, Y+5	; 0x05
    1342:	fe 81       	ldd	r31, Y+6	; 0x06
    1344:	80 82       	st	Z, r8
    1346:	91 82       	std	Z+1, r9	; 0x01
    1348:	a2 82       	std	Z+2, r10	; 0x02
    134a:	b3 82       	std	Z+3, r11	; 0x03
    134c:	07 c0       	rjmp	.+14     	; 0x135c <_ZN5Rotor8ActivityEv+0x1ec>
		if (frequency == 0){frequency = minfrequency;}
    134e:	ad 81       	ldd	r26, Y+5	; 0x05
    1350:	be 81       	ldd	r27, Y+6	; 0x06
    1352:	4d 92       	st	X+, r4
    1354:	5d 92       	st	X+, r5
    1356:	6d 92       	st	X+, r6
    1358:	7c 92       	st	X, r7
    135a:	13 97       	sbiw	r26, 0x03	; 3
		
		if (StaringTiming>StopingTime){
    135c:	89 81       	ldd	r24, Y+1	; 0x01
    135e:	9a 81       	ldd	r25, Y+2	; 0x02
    1360:	ab 81       	ldd	r26, Y+3	; 0x03
    1362:	bc 81       	ldd	r27, Y+4	; 0x04
    1364:	8c 15       	cp	r24, r12
    1366:	9d 05       	cpc	r25, r13
    1368:	ae 05       	cpc	r26, r14
    136a:	bf 05       	cpc	r27, r15
    136c:	18 f5       	brcc	.+70     	; 0x13b4 <_ZN5Rotor8ActivityEv+0x244>
			StaringTiming = 1;
    136e:	81 e0       	ldi	r24, 0x01	; 1
    1370:	90 e0       	ldi	r25, 0x00	; 0
    1372:	a0 e0       	ldi	r26, 0x00	; 0
    1374:	b0 e0       	ldi	r27, 0x00	; 0
    1376:	ed 81       	ldd	r30, Y+5	; 0x05
    1378:	fe 81       	ldd	r31, Y+6	; 0x06
    137a:	81 a3       	std	Z+33, r24	; 0x21
    137c:	92 a3       	std	Z+34, r25	; 0x22
    137e:	a3 a3       	std	Z+35, r26	; 0x23
    1380:	b4 a3       	std	Z+36, r27	; 0x24
			Started = false;
    1382:	13 8e       	std	Z+27, r1	; 0x1b
			Stoping = false;
    1384:	11 8e       	std	Z+25, r1	; 0x19
			if(Reversing){ _delay_ms(150); Starting=true;}
    1386:	82 8d       	ldd	r24, Z+26	; 0x1a
    1388:	88 23       	and	r24, r24
    138a:	a1 f0       	breq	.+40     	; 0x13b4 <_ZN5Rotor8ActivityEv+0x244>
	#else
		//round up by default
		__ticks_dc = (uint32_t)(ceil(fabs(__tmp)));
	#endif

	__builtin_avr_delay_cycles(__ticks_dc);
    138c:	ff e7       	ldi	r31, 0x7F	; 127
    138e:	29 ea       	ldi	r18, 0xA9	; 169
    1390:	83 e0       	ldi	r24, 0x03	; 3
    1392:	f1 50       	subi	r31, 0x01	; 1
    1394:	20 40       	sbci	r18, 0x00	; 0
    1396:	80 40       	sbci	r24, 0x00	; 0
    1398:	e1 f7       	brne	.-8      	; 0x1392 <_ZN5Rotor8ActivityEv+0x222>
    139a:	00 c0       	rjmp	.+0      	; 0x139c <_ZN5Rotor8ActivityEv+0x22c>
    139c:	00 00       	nop
    139e:	81 e0       	ldi	r24, 0x01	; 1
    13a0:	ad 81       	ldd	r26, Y+5	; 0x05
    13a2:	be 81       	ldd	r27, Y+6	; 0x06
    13a4:	58 96       	adiw	r26, 0x18	; 24
    13a6:	8c 93       	st	X, r24
		}
	}	
	

}
    13a8:	05 c0       	rjmp	.+10     	; 0x13b4 <_ZN5Rotor8ActivityEv+0x244>
		}		
		Reversing = false;
	}
	
	if (Reversing&&Started){
		Stoping = true;
    13aa:	81 e0       	ldi	r24, 0x01	; 1
    13ac:	ed 81       	ldd	r30, Y+5	; 0x05
    13ae:	fe 81       	ldd	r31, Y+6	; 0x06
    13b0:	81 8f       	std	Z+25, r24	; 0x19
    13b2:	15 cf       	rjmp	.-470    	; 0x11de <_ZN5Rotor8ActivityEv+0x6e>
			if(Reversing){ _delay_ms(150); Starting=true;}
		}
	}	
	

}
    13b4:	26 96       	adiw	r28, 0x06	; 6
    13b6:	0f b6       	in	r0, 0x3f	; 63
    13b8:	f8 94       	cli
    13ba:	de bf       	out	0x3e, r29	; 62
    13bc:	0f be       	out	0x3f, r0	; 63
    13be:	cd bf       	out	0x3d, r28	; 61
    13c0:	df 91       	pop	r29
    13c2:	cf 91       	pop	r28
    13c4:	ff 90       	pop	r15
    13c6:	ef 90       	pop	r14
    13c8:	df 90       	pop	r13
    13ca:	cf 90       	pop	r12
    13cc:	bf 90       	pop	r11
    13ce:	af 90       	pop	r10
    13d0:	9f 90       	pop	r9
    13d2:	8f 90       	pop	r8
    13d4:	7f 90       	pop	r7
    13d6:	6f 90       	pop	r6
    13d8:	5f 90       	pop	r5
    13da:	4f 90       	pop	r4
    13dc:	08 95       	ret

000013de <_ZN5Rotor10FrequncyUpEi>:

void Rotor::FrequncyUp(int up){
    13de:	fc 01       	movw	r30, r24
	workfrequency=workfrequency+up;
    13e0:	cb 01       	movw	r24, r22
    13e2:	77 0f       	add	r23, r23
    13e4:	aa 0b       	sbc	r26, r26
    13e6:	bb 0b       	sbc	r27, r27
    13e8:	44 81       	ldd	r20, Z+4	; 0x04
    13ea:	55 81       	ldd	r21, Z+5	; 0x05
    13ec:	66 81       	ldd	r22, Z+6	; 0x06
    13ee:	77 81       	ldd	r23, Z+7	; 0x07
    13f0:	84 0f       	add	r24, r20
    13f2:	95 1f       	adc	r25, r21
    13f4:	a6 1f       	adc	r26, r22
    13f6:	b7 1f       	adc	r27, r23
    13f8:	84 83       	std	Z+4, r24	; 0x04
    13fa:	95 83       	std	Z+5, r25	; 0x05
    13fc:	a6 83       	std	Z+6, r26	; 0x06
    13fe:	b7 83       	std	Z+7, r27	; 0x07
	if(workfrequency<minfrequency){workfrequency=minfrequency;}
    1400:	40 85       	ldd	r20, Z+8	; 0x08
    1402:	51 85       	ldd	r21, Z+9	; 0x09
    1404:	62 85       	ldd	r22, Z+10	; 0x0a
    1406:	73 85       	ldd	r23, Z+11	; 0x0b
    1408:	84 17       	cp	r24, r20
    140a:	95 07       	cpc	r25, r21
    140c:	a6 07       	cpc	r26, r22
    140e:	b7 07       	cpc	r27, r23
    1410:	20 f4       	brcc	.+8      	; 0x141a <_ZN5Rotor10FrequncyUpEi+0x3c>
    1412:	44 83       	std	Z+4, r20	; 0x04
    1414:	55 83       	std	Z+5, r21	; 0x05
    1416:	66 83       	std	Z+6, r22	; 0x06
    1418:	77 83       	std	Z+7, r23	; 0x07
	if(workfrequency>maxfrequency){workfrequency=maxfrequency;}
    141a:	84 85       	ldd	r24, Z+12	; 0x0c
    141c:	95 85       	ldd	r25, Z+13	; 0x0d
    141e:	a6 85       	ldd	r26, Z+14	; 0x0e
    1420:	b7 85       	ldd	r27, Z+15	; 0x0f
    1422:	44 81       	ldd	r20, Z+4	; 0x04
    1424:	55 81       	ldd	r21, Z+5	; 0x05
    1426:	66 81       	ldd	r22, Z+6	; 0x06
    1428:	77 81       	ldd	r23, Z+7	; 0x07
    142a:	84 17       	cp	r24, r20
    142c:	95 07       	cpc	r25, r21
    142e:	a6 07       	cpc	r26, r22
    1430:	b7 07       	cpc	r27, r23
    1432:	20 f4       	brcc	.+8      	; 0x143c <_ZN5Rotor10FrequncyUpEi+0x5e>
    1434:	84 83       	std	Z+4, r24	; 0x04
    1436:	95 83       	std	Z+5, r25	; 0x05
    1438:	a6 83       	std	Z+6, r26	; 0x06
    143a:	b7 83       	std	Z+7, r27	; 0x07
	frequency = workfrequency;
    143c:	84 81       	ldd	r24, Z+4	; 0x04
    143e:	95 81       	ldd	r25, Z+5	; 0x05
    1440:	a6 81       	ldd	r26, Z+6	; 0x06
    1442:	b7 81       	ldd	r27, Z+7	; 0x07
    1444:	80 83       	st	Z, r24
    1446:	91 83       	std	Z+1, r25	; 0x01
    1448:	a2 83       	std	Z+2, r26	; 0x02
    144a:	b3 83       	std	Z+3, r27	; 0x03
    144c:	08 95       	ret

0000144e <_ZN5Rotor13FrequencyDownEi>:
};

void Rotor::FrequencyDown(int down){
    144e:	cf 92       	push	r12
    1450:	df 92       	push	r13
    1452:	ef 92       	push	r14
    1454:	ff 92       	push	r15
    1456:	0f 93       	push	r16
    1458:	1f 93       	push	r17
    145a:	fc 01       	movw	r30, r24
	if(workfrequency-down>minfrequency&&workfrequency>down){workfrequency=workfrequency-down;}else{workfrequency=minfrequency;}
    145c:	04 81       	ldd	r16, Z+4	; 0x04
    145e:	15 81       	ldd	r17, Z+5	; 0x05
    1460:	26 81       	ldd	r18, Z+6	; 0x06
    1462:	37 81       	ldd	r19, Z+7	; 0x07
    1464:	cb 01       	movw	r24, r22
    1466:	77 0f       	add	r23, r23
    1468:	aa 0b       	sbc	r26, r26
    146a:	bb 0b       	sbc	r27, r27
    146c:	68 01       	movw	r12, r16
    146e:	79 01       	movw	r14, r18
    1470:	c8 1a       	sub	r12, r24
    1472:	d9 0a       	sbc	r13, r25
    1474:	ea 0a       	sbc	r14, r26
    1476:	fb 0a       	sbc	r15, r27
    1478:	40 85       	ldd	r20, Z+8	; 0x08
    147a:	51 85       	ldd	r21, Z+9	; 0x09
    147c:	62 85       	ldd	r22, Z+10	; 0x0a
    147e:	73 85       	ldd	r23, Z+11	; 0x0b
    1480:	4c 15       	cp	r20, r12
    1482:	5d 05       	cpc	r21, r13
    1484:	6e 05       	cpc	r22, r14
    1486:	7f 05       	cpc	r23, r15
    1488:	50 f4       	brcc	.+20     	; 0x149e <_ZN5Rotor13FrequencyDownEi+0x50>
    148a:	80 17       	cp	r24, r16
    148c:	91 07       	cpc	r25, r17
    148e:	a2 07       	cpc	r26, r18
    1490:	b3 07       	cpc	r27, r19
    1492:	28 f4       	brcc	.+10     	; 0x149e <_ZN5Rotor13FrequencyDownEi+0x50>
    1494:	c4 82       	std	Z+4, r12	; 0x04
    1496:	d5 82       	std	Z+5, r13	; 0x05
    1498:	e6 82       	std	Z+6, r14	; 0x06
    149a:	f7 82       	std	Z+7, r15	; 0x07
    149c:	04 c0       	rjmp	.+8      	; 0x14a6 <_ZN5Rotor13FrequencyDownEi+0x58>
    149e:	44 83       	std	Z+4, r20	; 0x04
    14a0:	55 83       	std	Z+5, r21	; 0x05
    14a2:	66 83       	std	Z+6, r22	; 0x06
    14a4:	77 83       	std	Z+7, r23	; 0x07
	
	frequency=workfrequency;
    14a6:	84 81       	ldd	r24, Z+4	; 0x04
    14a8:	95 81       	ldd	r25, Z+5	; 0x05
    14aa:	a6 81       	ldd	r26, Z+6	; 0x06
    14ac:	b7 81       	ldd	r27, Z+7	; 0x07
    14ae:	80 83       	st	Z, r24
    14b0:	91 83       	std	Z+1, r25	; 0x01
    14b2:	a2 83       	std	Z+2, r26	; 0x02
    14b4:	b3 83       	std	Z+3, r27	; 0x03
};
    14b6:	1f 91       	pop	r17
    14b8:	0f 91       	pop	r16
    14ba:	ff 90       	pop	r15
    14bc:	ef 90       	pop	r14
    14be:	df 90       	pop	r13
    14c0:	cf 90       	pop	r12
    14c2:	08 95       	ret

000014c4 <_ZN5Rotor10StartimeUpEi>:

void Rotor::StartimeUp(int TimeUp){
    14c4:	0f 93       	push	r16
    14c6:	1f 93       	push	r17
    14c8:	fc 01       	movw	r30, r24
	StaringTime = StaringTime + TimeUp;
    14ca:	ab 01       	movw	r20, r22
    14cc:	77 0f       	add	r23, r23
    14ce:	66 0b       	sbc	r22, r22
    14d0:	77 0b       	sbc	r23, r23
    14d2:	05 8d       	ldd	r16, Z+29	; 0x1d
    14d4:	16 8d       	ldd	r17, Z+30	; 0x1e
    14d6:	27 8d       	ldd	r18, Z+31	; 0x1f
    14d8:	30 a1       	ldd	r19, Z+32	; 0x20
    14da:	40 0f       	add	r20, r16
    14dc:	51 1f       	adc	r21, r17
    14de:	62 1f       	adc	r22, r18
    14e0:	73 1f       	adc	r23, r19
    14e2:	45 8f       	std	Z+29, r20	; 0x1d
    14e4:	56 8f       	std	Z+30, r21	; 0x1e
    14e6:	67 8f       	std	Z+31, r22	; 0x1f
    14e8:	70 a3       	std	Z+32, r23	; 0x20
	if (StaringTime > maxStartStopTime){ StaringTime = maxStartStopTime;}
    14ea:	84 89       	ldd	r24, Z+20	; 0x14
    14ec:	95 89       	ldd	r25, Z+21	; 0x15
    14ee:	a6 89       	ldd	r26, Z+22	; 0x16
    14f0:	b7 89       	ldd	r27, Z+23	; 0x17
    14f2:	84 17       	cp	r24, r20
    14f4:	95 07       	cpc	r25, r21
    14f6:	a6 07       	cpc	r26, r22
    14f8:	b7 07       	cpc	r27, r23
    14fa:	20 f4       	brcc	.+8      	; 0x1504 <_ZN5Rotor10StartimeUpEi+0x40>
    14fc:	85 8f       	std	Z+29, r24	; 0x1d
    14fe:	96 8f       	std	Z+30, r25	; 0x1e
    1500:	a7 8f       	std	Z+31, r26	; 0x1f
    1502:	b0 a3       	std	Z+32, r27	; 0x20
}
    1504:	1f 91       	pop	r17
    1506:	0f 91       	pop	r16
    1508:	08 95       	ret

0000150a <_ZN5Rotor12StartimeDownEi>:

void Rotor::StartimeDown(int TimeDown){
    150a:	fc 01       	movw	r30, r24
	if(StaringTime>TimeDown){StaringTime = StaringTime - TimeDown;
    150c:	85 8d       	ldd	r24, Z+29	; 0x1d
    150e:	96 8d       	ldd	r25, Z+30	; 0x1e
    1510:	a7 8d       	ldd	r26, Z+31	; 0x1f
    1512:	b0 a1       	ldd	r27, Z+32	; 0x20
    1514:	ab 01       	movw	r20, r22
    1516:	77 0f       	add	r23, r23
    1518:	66 0b       	sbc	r22, r22
    151a:	77 0b       	sbc	r23, r23
    151c:	48 17       	cp	r20, r24
    151e:	59 07       	cpc	r21, r25
    1520:	6a 07       	cpc	r22, r26
    1522:	7b 07       	cpc	r23, r27
    1524:	48 f4       	brcc	.+18     	; 0x1538 <_ZN5Rotor12StartimeDownEi+0x2e>
    1526:	84 1b       	sub	r24, r20
    1528:	95 0b       	sbc	r25, r21
    152a:	a6 0b       	sbc	r26, r22
    152c:	b7 0b       	sbc	r27, r23
    152e:	85 8f       	std	Z+29, r24	; 0x1d
    1530:	96 8f       	std	Z+30, r25	; 0x1e
    1532:	a7 8f       	std	Z+31, r26	; 0x1f
    1534:	b0 a3       	std	Z+32, r27	; 0x20
    1536:	08 95       	ret
	}else{ StaringTime = minStartStopTime;}
    1538:	80 89       	ldd	r24, Z+16	; 0x10
    153a:	91 89       	ldd	r25, Z+17	; 0x11
    153c:	a2 89       	ldd	r26, Z+18	; 0x12
    153e:	b3 89       	ldd	r27, Z+19	; 0x13
    1540:	85 8f       	std	Z+29, r24	; 0x1d
    1542:	96 8f       	std	Z+30, r25	; 0x1e
    1544:	a7 8f       	std	Z+31, r26	; 0x1f
    1546:	b0 a3       	std	Z+32, r27	; 0x20
    1548:	08 95       	ret

0000154a <_ZN5Rotor10StoptimeUpEi>:
}


void Rotor::StoptimeUp(int TimeUp){
    154a:	0f 93       	push	r16
    154c:	1f 93       	push	r17
    154e:	fc 01       	movw	r30, r24
	StopingTime = StopingTime + TimeUp;
    1550:	ab 01       	movw	r20, r22
    1552:	77 0f       	add	r23, r23
    1554:	66 0b       	sbc	r22, r22
    1556:	77 0b       	sbc	r23, r23
    1558:	05 a1       	ldd	r16, Z+37	; 0x25
    155a:	16 a1       	ldd	r17, Z+38	; 0x26
    155c:	27 a1       	ldd	r18, Z+39	; 0x27
    155e:	30 a5       	ldd	r19, Z+40	; 0x28
    1560:	40 0f       	add	r20, r16
    1562:	51 1f       	adc	r21, r17
    1564:	62 1f       	adc	r22, r18
    1566:	73 1f       	adc	r23, r19
    1568:	45 a3       	std	Z+37, r20	; 0x25
    156a:	56 a3       	std	Z+38, r21	; 0x26
    156c:	67 a3       	std	Z+39, r22	; 0x27
    156e:	70 a7       	std	Z+40, r23	; 0x28
	if (StopingTime > maxStartStopTime){ StopingTime = maxStartStopTime;}
    1570:	84 89       	ldd	r24, Z+20	; 0x14
    1572:	95 89       	ldd	r25, Z+21	; 0x15
    1574:	a6 89       	ldd	r26, Z+22	; 0x16
    1576:	b7 89       	ldd	r27, Z+23	; 0x17
    1578:	84 17       	cp	r24, r20
    157a:	95 07       	cpc	r25, r21
    157c:	a6 07       	cpc	r26, r22
    157e:	b7 07       	cpc	r27, r23
    1580:	20 f4       	brcc	.+8      	; 0x158a <_ZN5Rotor10StoptimeUpEi+0x40>
    1582:	85 a3       	std	Z+37, r24	; 0x25
    1584:	96 a3       	std	Z+38, r25	; 0x26
    1586:	a7 a3       	std	Z+39, r26	; 0x27
    1588:	b0 a7       	std	Z+40, r27	; 0x28
}
    158a:	1f 91       	pop	r17
    158c:	0f 91       	pop	r16
    158e:	08 95       	ret

00001590 <_ZN5Rotor12StoptimeDownEi>:

void Rotor::StoptimeDown(int TimeDown){
    1590:	fc 01       	movw	r30, r24
	if(StopingTime>TimeDown){StopingTime = StopingTime - TimeDown;
    1592:	85 a1       	ldd	r24, Z+37	; 0x25
    1594:	96 a1       	ldd	r25, Z+38	; 0x26
    1596:	a7 a1       	ldd	r26, Z+39	; 0x27
    1598:	b0 a5       	ldd	r27, Z+40	; 0x28
    159a:	ab 01       	movw	r20, r22
    159c:	77 0f       	add	r23, r23
    159e:	66 0b       	sbc	r22, r22
    15a0:	77 0b       	sbc	r23, r23
    15a2:	48 17       	cp	r20, r24
    15a4:	59 07       	cpc	r21, r25
    15a6:	6a 07       	cpc	r22, r26
    15a8:	7b 07       	cpc	r23, r27
    15aa:	48 f4       	brcc	.+18     	; 0x15be <_ZN5Rotor12StoptimeDownEi+0x2e>
    15ac:	84 1b       	sub	r24, r20
    15ae:	95 0b       	sbc	r25, r21
    15b0:	a6 0b       	sbc	r26, r22
    15b2:	b7 0b       	sbc	r27, r23
    15b4:	85 a3       	std	Z+37, r24	; 0x25
    15b6:	96 a3       	std	Z+38, r25	; 0x26
    15b8:	a7 a3       	std	Z+39, r26	; 0x27
    15ba:	b0 a7       	std	Z+40, r27	; 0x28
    15bc:	08 95       	ret
	}else{ StopingTime = minStartStopTime;}
    15be:	80 89       	ldd	r24, Z+16	; 0x10
    15c0:	91 89       	ldd	r25, Z+17	; 0x11
    15c2:	a2 89       	ldd	r26, Z+18	; 0x12
    15c4:	b3 89       	ldd	r27, Z+19	; 0x13
    15c6:	85 a3       	std	Z+37, r24	; 0x25
    15c8:	96 a3       	std	Z+38, r25	; 0x26
    15ca:	a7 a3       	std	Z+39, r26	; 0x27
    15cc:	b0 a7       	std	Z+40, r27	; 0x28
    15ce:	08 95       	ret

000015d0 <_ZN5Rotor12RotorStoppedEv>:
}


bool Rotor::RotorStopped(){
    15d0:	fc 01       	movw	r30, r24
	if(Started||Starting||Stoping){
    15d2:	83 8d       	ldd	r24, Z+27	; 0x1b
    15d4:	81 11       	cpse	r24, r1
    15d6:	07 c0       	rjmp	.+14     	; 0x15e6 <_ZN5Rotor12RotorStoppedEv+0x16>
    15d8:	90 8d       	ldd	r25, Z+24	; 0x18
    15da:	91 11       	cpse	r25, r1
    15dc:	05 c0       	rjmp	.+10     	; 0x15e8 <_ZN5Rotor12RotorStoppedEv+0x18>
    15de:	91 8d       	ldd	r25, Z+25	; 0x19
    15e0:	81 e0       	ldi	r24, 0x01	; 1
    15e2:	89 27       	eor	r24, r25
    15e4:	08 95       	ret
		return false;
    15e6:	80 e0       	ldi	r24, 0x00	; 0
	}else{
		return true;
	}
}
    15e8:	08 95       	ret

000015ea <_ZN5Rotor11MoveForvardEv>:
		PORTB &= ~(1<<CL);
		phasa=1;
	}	
}

void Rotor::MoveForvard(){
    15ea:	fc 01       	movw	r30, r24
	switch (phasa){
    15ec:	21 a5       	ldd	r18, Z+41	; 0x29
    15ee:	32 a5       	ldd	r19, Z+42	; 0x2a
    15f0:	23 30       	cpi	r18, 0x03	; 3
    15f2:	31 05       	cpc	r19, r1
    15f4:	b1 f0       	breq	.+44     	; 0x1622 <_ZN5Rotor11MoveForvardEv+0x38>
    15f6:	3c f4       	brge	.+14     	; 0x1606 <_ZN5Rotor11MoveForvardEv+0x1c>
    15f8:	21 30       	cpi	r18, 0x01	; 1
    15fa:	31 05       	cpc	r19, r1
    15fc:	61 f0       	breq	.+24     	; 0x1616 <_ZN5Rotor11MoveForvardEv+0x2c>
    15fe:	22 30       	cpi	r18, 0x02	; 2
    1600:	31 05       	cpc	r19, r1
    1602:	61 f0       	breq	.+24     	; 0x161c <_ZN5Rotor11MoveForvardEv+0x32>
    1604:	19 c0       	rjmp	.+50     	; 0x1638 <_ZN5Rotor11MoveForvardEv+0x4e>
    1606:	25 30       	cpi	r18, 0x05	; 5
    1608:	31 05       	cpc	r19, r1
    160a:	89 f0       	breq	.+34     	; 0x162e <_ZN5Rotor11MoveForvardEv+0x44>
    160c:	6c f0       	brlt	.+26     	; 0x1628 <_ZN5Rotor11MoveForvardEv+0x3e>
    160e:	26 30       	cpi	r18, 0x06	; 6
    1610:	31 05       	cpc	r19, r1
    1612:	81 f0       	breq	.+32     	; 0x1634 <_ZN5Rotor11MoveForvardEv+0x4a>
    1614:	11 c0       	rjmp	.+34     	; 0x1638 <_ZN5Rotor11MoveForvardEv+0x4e>
		case 1: PORTB &= ~(1<<CH);PORTB |=(1<<BH);break;
    1616:	c4 98       	cbi	0x18, 4	; 24
    1618:	c2 9a       	sbi	0x18, 2	; 24
    161a:	0e c0       	rjmp	.+28     	; 0x1638 <_ZN5Rotor11MoveForvardEv+0x4e>
		case 2: PORTB &= ~(1<<AL);PORTB |=(1<<CL);break;
    161c:	c1 98       	cbi	0x18, 1	; 24
    161e:	c5 9a       	sbi	0x18, 5	; 24
    1620:	0b c0       	rjmp	.+22     	; 0x1638 <_ZN5Rotor11MoveForvardEv+0x4e>
		case 3: PORTB &= ~(1<<BH);PORTB |=(1<<AH);break;
    1622:	c2 98       	cbi	0x18, 2	; 24
    1624:	c0 9a       	sbi	0x18, 0	; 24
    1626:	08 c0       	rjmp	.+16     	; 0x1638 <_ZN5Rotor11MoveForvardEv+0x4e>
		case 4: PORTB &= ~(1<<CL);PORTC |=(1<<BL);break;
    1628:	c5 98       	cbi	0x18, 5	; 24
    162a:	aa 9a       	sbi	0x15, 2	; 21
    162c:	05 c0       	rjmp	.+10     	; 0x1638 <_ZN5Rotor11MoveForvardEv+0x4e>
		case 5: PORTB &= ~(1<<AH);PORTB |= (1<<CH);break;
    162e:	c0 98       	cbi	0x18, 0	; 24
    1630:	c4 9a       	sbi	0x18, 4	; 24
    1632:	02 c0       	rjmp	.+4      	; 0x1638 <_ZN5Rotor11MoveForvardEv+0x4e>
		case 6: PORTC &= ~(1<<BL);PORTB |= (1<<AL);break;
    1634:	aa 98       	cbi	0x15, 2	; 21
    1636:	c1 9a       	sbi	0x18, 1	; 24
	}
	phasa++;
    1638:	21 a5       	ldd	r18, Z+41	; 0x29
    163a:	32 a5       	ldd	r19, Z+42	; 0x2a
    163c:	2f 5f       	subi	r18, 0xFF	; 255
    163e:	3f 4f       	sbci	r19, 0xFF	; 255
	if (phasa>6){phasa=1;}
    1640:	27 30       	cpi	r18, 0x07	; 7
    1642:	31 05       	cpc	r19, r1
    1644:	1c f4       	brge	.+6      	; 0x164c <_ZN5Rotor11MoveForvardEv+0x62>
		case 3: PORTB &= ~(1<<BH);PORTB |=(1<<AH);break;
		case 4: PORTB &= ~(1<<CL);PORTC |=(1<<BL);break;
		case 5: PORTB &= ~(1<<AH);PORTB |= (1<<CH);break;
		case 6: PORTC &= ~(1<<BL);PORTB |= (1<<AL);break;
	}
	phasa++;
    1646:	32 a7       	std	Z+42, r19	; 0x2a
    1648:	21 a7       	std	Z+41, r18	; 0x29
    164a:	08 95       	ret
	if (phasa>6){phasa=1;}
    164c:	81 e0       	ldi	r24, 0x01	; 1
    164e:	90 e0       	ldi	r25, 0x00	; 0
    1650:	92 a7       	std	Z+42, r25	; 0x2a
    1652:	81 a7       	std	Z+41, r24	; 0x29
    1654:	08 95       	ret

00001656 <_ZN5Rotor8MoveBackEv>:
}

void Rotor::MoveBack(){
    1656:	fc 01       	movw	r30, r24
	switch (phasa){
    1658:	21 a5       	ldd	r18, Z+41	; 0x29
    165a:	32 a5       	ldd	r19, Z+42	; 0x2a
    165c:	23 30       	cpi	r18, 0x03	; 3
    165e:	31 05       	cpc	r19, r1
    1660:	c1 f0       	breq	.+48     	; 0x1692 <_ZN5Rotor8MoveBackEv+0x3c>
    1662:	3c f4       	brge	.+14     	; 0x1672 <_ZN5Rotor8MoveBackEv+0x1c>
    1664:	21 30       	cpi	r18, 0x01	; 1
    1666:	31 05       	cpc	r19, r1
    1668:	d1 f0       	breq	.+52     	; 0x169e <_ZN5Rotor8MoveBackEv+0x48>
    166a:	22 30       	cpi	r18, 0x02	; 2
    166c:	31 05       	cpc	r19, r1
    166e:	a1 f0       	breq	.+40     	; 0x1698 <_ZN5Rotor8MoveBackEv+0x42>
    1670:	18 c0       	rjmp	.+48     	; 0x16a2 <_ZN5Rotor8MoveBackEv+0x4c>
    1672:	25 30       	cpi	r18, 0x05	; 5
    1674:	31 05       	cpc	r19, r1
    1676:	39 f0       	breq	.+14     	; 0x1686 <_ZN5Rotor8MoveBackEv+0x30>
    1678:	4c f0       	brlt	.+18     	; 0x168c <_ZN5Rotor8MoveBackEv+0x36>
    167a:	26 30       	cpi	r18, 0x06	; 6
    167c:	31 05       	cpc	r19, r1
    167e:	89 f4       	brne	.+34     	; 0x16a2 <_ZN5Rotor8MoveBackEv+0x4c>
		case 6: PORTB |=(1<<CH);PORTB &= ~(1<<BH);break;
    1680:	c4 9a       	sbi	0x18, 4	; 24
    1682:	c2 98       	cbi	0x18, 2	; 24
    1684:	0e c0       	rjmp	.+28     	; 0x16a2 <_ZN5Rotor8MoveBackEv+0x4c>
		case 5: PORTB |=(1<<AL);PORTB &= ~(1<<CL);break;
    1686:	c1 9a       	sbi	0x18, 1	; 24
    1688:	c5 98       	cbi	0x18, 5	; 24
    168a:	0b c0       	rjmp	.+22     	; 0x16a2 <_ZN5Rotor8MoveBackEv+0x4c>
		case 4: PORTB |=(1<<BH);PORTB &= ~(1<<AH);break;
    168c:	c2 9a       	sbi	0x18, 2	; 24
    168e:	c0 98       	cbi	0x18, 0	; 24
    1690:	08 c0       	rjmp	.+16     	; 0x16a2 <_ZN5Rotor8MoveBackEv+0x4c>
		case 3: PORTB |=(1<<CL);PORTC &= ~(1<<BL);break;
    1692:	c5 9a       	sbi	0x18, 5	; 24
    1694:	aa 98       	cbi	0x15, 2	; 21
    1696:	05 c0       	rjmp	.+10     	; 0x16a2 <_ZN5Rotor8MoveBackEv+0x4c>
		case 2: PORTB |=(1<<AH);PORTB &= ~(1<<CH);break;
    1698:	c0 9a       	sbi	0x18, 0	; 24
    169a:	c4 98       	cbi	0x18, 4	; 24
    169c:	02 c0       	rjmp	.+4      	; 0x16a2 <_ZN5Rotor8MoveBackEv+0x4c>
		case 1: PORTC |=(1<<BL);PORTB &= ~(1<<AL);break;
    169e:	aa 9a       	sbi	0x15, 2	; 21
    16a0:	c1 98       	cbi	0x18, 1	; 24
	}
	phasa++;
    16a2:	21 a5       	ldd	r18, Z+41	; 0x29
    16a4:	32 a5       	ldd	r19, Z+42	; 0x2a
    16a6:	2f 5f       	subi	r18, 0xFF	; 255
    16a8:	3f 4f       	sbci	r19, 0xFF	; 255
	if (phasa>6){phasa=1;}
    16aa:	27 30       	cpi	r18, 0x07	; 7
    16ac:	31 05       	cpc	r19, r1
    16ae:	1c f4       	brge	.+6      	; 0x16b6 <_ZN5Rotor8MoveBackEv+0x60>
		case 4: PORTB |=(1<<BH);PORTB &= ~(1<<AH);break;
		case 3: PORTB |=(1<<CL);PORTC &= ~(1<<BL);break;
		case 2: PORTB |=(1<<AH);PORTB &= ~(1<<CH);break;
		case 1: PORTC |=(1<<BL);PORTB &= ~(1<<AL);break;
	}
	phasa++;
    16b0:	32 a7       	std	Z+42, r19	; 0x2a
    16b2:	21 a7       	std	Z+41, r18	; 0x29
    16b4:	08 95       	ret
	if (phasa>6){phasa=1;}
    16b6:	81 e0       	ldi	r24, 0x01	; 1
    16b8:	90 e0       	ldi	r25, 0x00	; 0
    16ba:	92 a7       	std	Z+42, r25	; 0x2a
    16bc:	81 a7       	std	Z+41, r24	; 0x29
    16be:	08 95       	ret

000016c0 <_ZN5Rotor4MoveEv>:
}

void Rotor::Move(){
	
		
	if (Started||Starting){
    16c0:	fc 01       	movw	r30, r24
    16c2:	23 8d       	ldd	r18, Z+27	; 0x1b
    16c4:	21 11       	cpse	r18, r1
    16c6:	03 c0       	rjmp	.+6      	; 0x16ce <_ZN5Rotor4MoveEv+0xe>
    16c8:	20 8d       	ldd	r18, Z+24	; 0x18
    16ca:	22 23       	and	r18, r18
    16cc:	41 f0       	breq	.+16     	; 0x16de <_ZN5Rotor4MoveEv+0x1e>
		
		if (!Reverse){
    16ce:	fc 01       	movw	r30, r24
    16d0:	24 8d       	ldd	r18, Z+28	; 0x1c
    16d2:	21 11       	cpse	r18, r1
    16d4:	02 c0       	rjmp	.+4      	; 0x16da <_ZN5Rotor4MoveEv+0x1a>
			MoveForvard();
    16d6:	89 df       	rcall	.-238    	; 0x15ea <_ZN5Rotor11MoveForvardEv>
    16d8:	08 95       	ret
		}else{
			MoveBack();
    16da:	bd df       	rcall	.-134    	; 0x1656 <_ZN5Rotor8MoveBackEv>
    16dc:	08 95       	ret
		}
		
		}else{
		PORTB &= ~(1<<AH);
    16de:	c0 98       	cbi	0x18, 0	; 24
		PORTB &= ~(1<<AL);
    16e0:	c1 98       	cbi	0x18, 1	; 24
		PORTB &= ~(1<<BH);
    16e2:	c2 98       	cbi	0x18, 2	; 24
		PORTC &= ~(1<<BL);
    16e4:	aa 98       	cbi	0x15, 2	; 21
		PORTB &= ~(1<<CH);
    16e6:	c4 98       	cbi	0x18, 4	; 24
		PORTB &= ~(1<<CL);
    16e8:	c5 98       	cbi	0x18, 5	; 24
		phasa=1;
    16ea:	21 e0       	ldi	r18, 0x01	; 1
    16ec:	30 e0       	ldi	r19, 0x00	; 0
    16ee:	fc 01       	movw	r30, r24
    16f0:	32 a7       	std	Z+42, r19	; 0x2a
    16f2:	21 a7       	std	Z+41, r18	; 0x29
    16f4:	08 95       	ret

000016f6 <__mulsi3>:
    16f6:	db 01       	movw	r26, r22
    16f8:	8f 93       	push	r24
    16fa:	9f 93       	push	r25
    16fc:	49 d0       	rcall	.+146    	; 0x1790 <__muluhisi3>
    16fe:	bf 91       	pop	r27
    1700:	af 91       	pop	r26
    1702:	a2 9f       	mul	r26, r18
    1704:	80 0d       	add	r24, r0
    1706:	91 1d       	adc	r25, r1
    1708:	a3 9f       	mul	r26, r19
    170a:	90 0d       	add	r25, r0
    170c:	b2 9f       	mul	r27, r18
    170e:	90 0d       	add	r25, r0
    1710:	11 24       	eor	r1, r1
    1712:	08 95       	ret

00001714 <__udivmodsi4>:
    1714:	a1 e2       	ldi	r26, 0x21	; 33
    1716:	1a 2e       	mov	r1, r26
    1718:	aa 1b       	sub	r26, r26
    171a:	bb 1b       	sub	r27, r27
    171c:	fd 01       	movw	r30, r26
    171e:	0d c0       	rjmp	.+26     	; 0x173a <__udivmodsi4_ep>

00001720 <__udivmodsi4_loop>:
    1720:	aa 1f       	adc	r26, r26
    1722:	bb 1f       	adc	r27, r27
    1724:	ee 1f       	adc	r30, r30
    1726:	ff 1f       	adc	r31, r31
    1728:	a2 17       	cp	r26, r18
    172a:	b3 07       	cpc	r27, r19
    172c:	e4 07       	cpc	r30, r20
    172e:	f5 07       	cpc	r31, r21
    1730:	20 f0       	brcs	.+8      	; 0x173a <__udivmodsi4_ep>
    1732:	a2 1b       	sub	r26, r18
    1734:	b3 0b       	sbc	r27, r19
    1736:	e4 0b       	sbc	r30, r20
    1738:	f5 0b       	sbc	r31, r21

0000173a <__udivmodsi4_ep>:
    173a:	66 1f       	adc	r22, r22
    173c:	77 1f       	adc	r23, r23
    173e:	88 1f       	adc	r24, r24
    1740:	99 1f       	adc	r25, r25
    1742:	1a 94       	dec	r1
    1744:	69 f7       	brne	.-38     	; 0x1720 <__udivmodsi4_loop>
    1746:	60 95       	com	r22
    1748:	70 95       	com	r23
    174a:	80 95       	com	r24
    174c:	90 95       	com	r25
    174e:	9b 01       	movw	r18, r22
    1750:	ac 01       	movw	r20, r24
    1752:	bd 01       	movw	r22, r26
    1754:	cf 01       	movw	r24, r30
    1756:	08 95       	ret

00001758 <__divmodsi4>:
    1758:	05 2e       	mov	r0, r21
    175a:	97 fb       	bst	r25, 7
    175c:	16 f4       	brtc	.+4      	; 0x1762 <__divmodsi4+0xa>
    175e:	00 94       	com	r0
    1760:	0f d0       	rcall	.+30     	; 0x1780 <__negsi2>
    1762:	57 fd       	sbrc	r21, 7
    1764:	05 d0       	rcall	.+10     	; 0x1770 <__divmodsi4_neg2>
    1766:	d6 df       	rcall	.-84     	; 0x1714 <__udivmodsi4>
    1768:	07 fc       	sbrc	r0, 7
    176a:	02 d0       	rcall	.+4      	; 0x1770 <__divmodsi4_neg2>
    176c:	46 f4       	brtc	.+16     	; 0x177e <__divmodsi4_exit>
    176e:	08 c0       	rjmp	.+16     	; 0x1780 <__negsi2>

00001770 <__divmodsi4_neg2>:
    1770:	50 95       	com	r21
    1772:	40 95       	com	r20
    1774:	30 95       	com	r19
    1776:	21 95       	neg	r18
    1778:	3f 4f       	sbci	r19, 0xFF	; 255
    177a:	4f 4f       	sbci	r20, 0xFF	; 255
    177c:	5f 4f       	sbci	r21, 0xFF	; 255

0000177e <__divmodsi4_exit>:
    177e:	08 95       	ret

00001780 <__negsi2>:
    1780:	90 95       	com	r25
    1782:	80 95       	com	r24
    1784:	70 95       	com	r23
    1786:	61 95       	neg	r22
    1788:	7f 4f       	sbci	r23, 0xFF	; 255
    178a:	8f 4f       	sbci	r24, 0xFF	; 255
    178c:	9f 4f       	sbci	r25, 0xFF	; 255
    178e:	08 95       	ret

00001790 <__muluhisi3>:
    1790:	09 d0       	rcall	.+18     	; 0x17a4 <__umulhisi3>
    1792:	a5 9f       	mul	r26, r21
    1794:	90 0d       	add	r25, r0
    1796:	b4 9f       	mul	r27, r20
    1798:	90 0d       	add	r25, r0
    179a:	a4 9f       	mul	r26, r20
    179c:	80 0d       	add	r24, r0
    179e:	91 1d       	adc	r25, r1
    17a0:	11 24       	eor	r1, r1
    17a2:	08 95       	ret

000017a4 <__umulhisi3>:
    17a4:	a2 9f       	mul	r26, r18
    17a6:	b0 01       	movw	r22, r0
    17a8:	b3 9f       	mul	r27, r19
    17aa:	c0 01       	movw	r24, r0
    17ac:	a3 9f       	mul	r26, r19
    17ae:	01 d0       	rcall	.+2      	; 0x17b2 <__umulhisi3+0xe>
    17b0:	b2 9f       	mul	r27, r18
    17b2:	70 0d       	add	r23, r0
    17b4:	81 1d       	adc	r24, r1
    17b6:	11 24       	eor	r1, r1
    17b8:	91 1d       	adc	r25, r1
    17ba:	08 95       	ret

000017bc <_exit>:
    17bc:	f8 94       	cli

000017be <__stop_program>:
    17be:	ff cf       	rjmp	.-2      	; 0x17be <__stop_program>
