
ATmega8Interapt.elf:     file format elf32-avr

Sections:
Idx Name          Size      VMA       LMA       File off  Algn
  0 .text         00001cac  00000000  00000000  00000094  2**1
                  CONTENTS, ALLOC, LOAD, READONLY, CODE
  1 .data         00000066  00800060  00001cac  00001d40  2**0
                  CONTENTS, ALLOC, LOAD, DATA
  2 .bss          00000109  008000c6  008000c6  00001da6  2**0
                  ALLOC
  3 .comment      00000030  00000000  00000000  00001da6  2**0
                  CONTENTS, READONLY
  4 .note.gnu.avr.deviceinfo 0000003c  00000000  00000000  00001dd8  2**2
                  CONTENTS, READONLY
  5 .debug_aranges 00000298  00000000  00000000  00001e14  2**0
                  CONTENTS, READONLY, DEBUGGING
  6 .debug_info   00003b54  00000000  00000000  000020ac  2**0
                  CONTENTS, READONLY, DEBUGGING
  7 .debug_abbrev 00000d46  00000000  00000000  00005c00  2**0
                  CONTENTS, READONLY, DEBUGGING
  8 .debug_line   00001b10  00000000  00000000  00006946  2**0
                  CONTENTS, READONLY, DEBUGGING
  9 .debug_frame  00000770  00000000  00000000  00008458  2**2
                  CONTENTS, READONLY, DEBUGGING
 10 .debug_str    00000f1c  00000000  00000000  00008bc8  2**0
                  CONTENTS, READONLY, DEBUGGING
 11 .debug_loc    00001e4c  00000000  00000000  00009ae4  2**0
                  CONTENTS, READONLY, DEBUGGING
 12 .debug_ranges 00000248  00000000  00000000  0000b930  2**0
                  CONTENTS, READONLY, DEBUGGING

Disassembly of section .text:

00000000 <__vectors>:
       0:	21 c0       	rjmp	.+66     	; 0x44 <__ctors_end>
       2:	45 c0       	rjmp	.+138    	; 0x8e <__bad_interrupt>
       4:	44 c0       	rjmp	.+136    	; 0x8e <__bad_interrupt>
       6:	43 c0       	rjmp	.+134    	; 0x8e <__bad_interrupt>
       8:	42 c0       	rjmp	.+132    	; 0x8e <__bad_interrupt>
       a:	41 c0       	rjmp	.+130    	; 0x8e <__bad_interrupt>
       c:	6b c3       	rjmp	.+1750   	; 0x6e4 <__vector_6>
       e:	3f c0       	rjmp	.+126    	; 0x8e <__bad_interrupt>
      10:	3e c0       	rjmp	.+124    	; 0x8e <__bad_interrupt>
      12:	3d c0       	rjmp	.+122    	; 0x8e <__bad_interrupt>
      14:	3c c0       	rjmp	.+120    	; 0x8e <__bad_interrupt>
      16:	3b c0       	rjmp	.+118    	; 0x8e <__bad_interrupt>
      18:	3a c0       	rjmp	.+116    	; 0x8e <__bad_interrupt>
      1a:	39 c0       	rjmp	.+114    	; 0x8e <__bad_interrupt>
      1c:	38 c0       	rjmp	.+112    	; 0x8e <__bad_interrupt>
      1e:	37 c0       	rjmp	.+110    	; 0x8e <__bad_interrupt>
      20:	36 c0       	rjmp	.+108    	; 0x8e <__bad_interrupt>
      22:	35 c0       	rjmp	.+106    	; 0x8e <__bad_interrupt>
      24:	34 c0       	rjmp	.+104    	; 0x8e <__bad_interrupt>
      26:	a7 c1       	rjmp	.+846    	; 0x376 <_Z8SHD0032Gl+0x2a>
      28:	a8 c1       	rjmp	.+848    	; 0x37a <_Z8SHD0032Gl+0x2e>
      2a:	a9 c1       	rjmp	.+850    	; 0x37e <_Z8SHD0032Gl+0x32>
      2c:	aa c1       	rjmp	.+852    	; 0x382 <_Z8SHD0032Gl+0x36>
      2e:	ab c1       	rjmp	.+854    	; 0x386 <_Z8SHD0032Gl+0x3a>
      30:	ac c1       	rjmp	.+856    	; 0x38a <_Z8SHD0032Gl+0x3e>
      32:	ad c1       	rjmp	.+858    	; 0x38e <_Z8SHD0032Gl+0x42>
      34:	ae c1       	rjmp	.+860    	; 0x392 <_Z8SHD0032Gl+0x46>
      36:	af c1       	rjmp	.+862    	; 0x396 <_Z8SHD0032Gl+0x4a>
      38:	b0 c1       	rjmp	.+864    	; 0x39a <_Z8SHD0032Gl+0x4e>
      3a:	b1 c1       	rjmp	.+866    	; 0x39e <_Z8SHD0032Gl+0x52>
      3c:	b2 c1       	rjmp	.+868    	; 0x3a2 <_Z8SHD0032Gl+0x56>
      3e:	b3 c1       	rjmp	.+870    	; 0x3a6 <_Z8SHD0032Gl+0x5a>
      40:	b4 c1       	rjmp	.+872    	; 0x3aa <_Z8SHD0032Gl+0x5e>

00000042 <__ctors_start>:
      42:	59 08       	sbc	r5, r9

00000044 <__ctors_end>:
      44:	11 24       	eor	r1, r1
      46:	1f be       	out	0x3f, r1	; 63
      48:	cf e5       	ldi	r28, 0x5F	; 95
      4a:	d4 e0       	ldi	r29, 0x04	; 4
      4c:	de bf       	out	0x3e, r29	; 62
      4e:	cd bf       	out	0x3d, r28	; 61

00000050 <__do_copy_data>:
      50:	10 e0       	ldi	r17, 0x00	; 0
      52:	a0 e6       	ldi	r26, 0x60	; 96
      54:	b0 e0       	ldi	r27, 0x00	; 0
      56:	ec ea       	ldi	r30, 0xAC	; 172
      58:	fc e1       	ldi	r31, 0x1C	; 28
      5a:	02 c0       	rjmp	.+4      	; 0x60 <__do_copy_data+0x10>
      5c:	05 90       	lpm	r0, Z+
      5e:	0d 92       	st	X+, r0
      60:	a6 3c       	cpi	r26, 0xC6	; 198
      62:	b1 07       	cpc	r27, r17
      64:	d9 f7       	brne	.-10     	; 0x5c <__do_copy_data+0xc>

00000066 <__do_clear_bss>:
      66:	21 e0       	ldi	r18, 0x01	; 1
      68:	a6 ec       	ldi	r26, 0xC6	; 198
      6a:	b0 e0       	ldi	r27, 0x00	; 0
      6c:	01 c0       	rjmp	.+2      	; 0x70 <.do_clear_bss_start>

0000006e <.do_clear_bss_loop>:
      6e:	1d 92       	st	X+, r1

00000070 <.do_clear_bss_start>:
      70:	af 3c       	cpi	r26, 0xCF	; 207
      72:	b2 07       	cpc	r27, r18
      74:	e1 f7       	brne	.-8      	; 0x6e <.do_clear_bss_loop>

00000076 <__do_global_ctors>:
      76:	10 e0       	ldi	r17, 0x00	; 0
      78:	c2 e2       	ldi	r28, 0x22	; 34
      7a:	d0 e0       	ldi	r29, 0x00	; 0
      7c:	03 c0       	rjmp	.+6      	; 0x84 <__do_global_ctors+0xe>
      7e:	21 97       	sbiw	r28, 0x01	; 1
      80:	fe 01       	movw	r30, r28
      82:	00 de       	rcall	.-1024   	; 0xfffffc84 <__eeprom_end+0xff7efc84>
      84:	c1 32       	cpi	r28, 0x21	; 33
      86:	d1 07       	cpc	r29, r17
      88:	d1 f7       	brne	.-12     	; 0x7e <__do_global_ctors+0x8>
      8a:	01 d8       	rcall	.-4094   	; 0xfffff08e <__eeprom_end+0xff7ef08e>
      8c:	0d ce       	rjmp	.-998    	; 0xfffffca8 <__eeprom_end+0xff7efca8>

0000008e <__bad_interrupt>:
      8e:	b8 cf       	rjmp	.-144    	; 0x0 <__vectors>

00000090 <_ZN6Button4InitEci>:
      90:	fc 01       	movw	r30, r24
      92:	60 83       	st	Z, r22
      94:	41 83       	std	Z+1, r20	; 0x01
      96:	52 83       	std	Z+2, r21	; 0x02
      98:	8a e0       	ldi	r24, 0x0A	; 10
      9a:	90 e0       	ldi	r25, 0x00	; 0
      9c:	94 83       	std	Z+4, r25	; 0x04
      9e:	83 83       	std	Z+3, r24	; 0x03
      a0:	63 34       	cpi	r22, 0x43	; 67
      a2:	a1 f0       	breq	.+40     	; 0xcc <_ZN6Button4InitEci+0x3c>
      a4:	64 34       	cpi	r22, 0x44	; 68
      a6:	11 f1       	breq	.+68     	; 0xec <_ZN6Button4InitEci+0x5c>
      a8:	62 34       	cpi	r22, 0x42	; 66
      aa:	79 f5       	brne	.+94     	; 0x10a <_ZN6Button4InitEci+0x7a>
      ac:	27 b3       	in	r18, 0x17	; 23
      ae:	81 e0       	ldi	r24, 0x01	; 1
      b0:	90 e0       	ldi	r25, 0x00	; 0
      b2:	02 c0       	rjmp	.+4      	; 0xb8 <_ZN6Button4InitEci+0x28>
      b4:	88 0f       	add	r24, r24
      b6:	99 1f       	adc	r25, r25
      b8:	4a 95       	dec	r20
      ba:	e2 f7       	brpl	.-8      	; 0xb4 <_ZN6Button4InitEci+0x24>
      bc:	98 2f       	mov	r25, r24
      be:	90 95       	com	r25
      c0:	92 23       	and	r25, r18
      c2:	97 bb       	out	0x17, r25	; 23
      c4:	98 b3       	in	r25, 0x18	; 24
      c6:	89 2b       	or	r24, r25
      c8:	88 bb       	out	0x18, r24	; 24
      ca:	08 95       	ret
      cc:	24 b3       	in	r18, 0x14	; 20
      ce:	81 e0       	ldi	r24, 0x01	; 1
      d0:	90 e0       	ldi	r25, 0x00	; 0
      d2:	02 c0       	rjmp	.+4      	; 0xd8 <_ZN6Button4InitEci+0x48>
      d4:	88 0f       	add	r24, r24
      d6:	99 1f       	adc	r25, r25
      d8:	4a 95       	dec	r20
      da:	e2 f7       	brpl	.-8      	; 0xd4 <_ZN6Button4InitEci+0x44>
      dc:	98 2f       	mov	r25, r24
      de:	90 95       	com	r25
      e0:	92 23       	and	r25, r18
      e2:	94 bb       	out	0x14, r25	; 20
      e4:	95 b3       	in	r25, 0x15	; 21
      e6:	89 2b       	or	r24, r25
      e8:	85 bb       	out	0x15, r24	; 21
      ea:	08 95       	ret
      ec:	21 b3       	in	r18, 0x11	; 17
      ee:	81 e0       	ldi	r24, 0x01	; 1
      f0:	90 e0       	ldi	r25, 0x00	; 0
      f2:	02 c0       	rjmp	.+4      	; 0xf8 <_ZN6Button4InitEci+0x68>
      f4:	88 0f       	add	r24, r24
      f6:	99 1f       	adc	r25, r25
      f8:	4a 95       	dec	r20
      fa:	e2 f7       	brpl	.-8      	; 0xf4 <_ZN6Button4InitEci+0x64>
      fc:	98 2f       	mov	r25, r24
      fe:	90 95       	com	r25
     100:	92 23       	and	r25, r18
     102:	91 bb       	out	0x11, r25	; 17
     104:	92 b3       	in	r25, 0x12	; 18
     106:	89 2b       	or	r24, r25
     108:	82 bb       	out	0x12, r24	; 18
     10a:	08 95       	ret

0000010c <_ZN6Button9PressReadEv>:
     10c:	fc 01       	movw	r30, r24
     10e:	27 81       	ldd	r18, Z+7	; 0x07
     110:	30 85       	ldd	r19, Z+8	; 0x08
     112:	23 2b       	or	r18, r19
     114:	21 f0       	breq	.+8      	; 0x11e <_ZN6Button9PressReadEv+0x12>
     116:	10 86       	std	Z+8, r1	; 0x08
     118:	17 82       	std	Z+7, r1	; 0x07
     11a:	81 e0       	ldi	r24, 0x01	; 1
     11c:	08 95       	ret
     11e:	80 e0       	ldi	r24, 0x00	; 0
     120:	08 95       	ret

00000122 <_ZN6Button7ReadPinEv>:
     122:	fc 01       	movw	r30, r24
     124:	90 81       	ld	r25, Z
     126:	93 34       	cpi	r25, 0x43	; 67
     128:	79 f0       	breq	.+30     	; 0x148 <_ZN6Button7ReadPinEv+0x26>
     12a:	94 34       	cpi	r25, 0x44	; 68
     12c:	c1 f0       	breq	.+48     	; 0x15e <_ZN6Button7ReadPinEv+0x3c>
     12e:	92 34       	cpi	r25, 0x42	; 66
     130:	19 f5       	brne	.+70     	; 0x178 <_ZN6Button7ReadPinEv+0x56>
     132:	26 b3       	in	r18, 0x16	; 22
     134:	30 e0       	ldi	r19, 0x00	; 0
     136:	c9 01       	movw	r24, r18
     138:	01 80       	ldd	r0, Z+1	; 0x01
     13a:	02 c0       	rjmp	.+4      	; 0x140 <_ZN6Button7ReadPinEv+0x1e>
     13c:	95 95       	asr	r25
     13e:	87 95       	ror	r24
     140:	0a 94       	dec	r0
     142:	e2 f7       	brpl	.-8      	; 0x13c <_ZN6Button7ReadPinEv+0x1a>
     144:	81 70       	andi	r24, 0x01	; 1
     146:	15 c0       	rjmp	.+42     	; 0x172 <_ZN6Button7ReadPinEv+0x50>
     148:	23 b3       	in	r18, 0x13	; 19
     14a:	30 e0       	ldi	r19, 0x00	; 0
     14c:	c9 01       	movw	r24, r18
     14e:	01 80       	ldd	r0, Z+1	; 0x01
     150:	02 c0       	rjmp	.+4      	; 0x156 <_ZN6Button7ReadPinEv+0x34>
     152:	95 95       	asr	r25
     154:	87 95       	ror	r24
     156:	0a 94       	dec	r0
     158:	e2 f7       	brpl	.-8      	; 0x152 <_ZN6Button7ReadPinEv+0x30>
     15a:	81 70       	andi	r24, 0x01	; 1
     15c:	0a c0       	rjmp	.+20     	; 0x172 <_ZN6Button7ReadPinEv+0x50>
     15e:	20 b3       	in	r18, 0x10	; 16
     160:	30 e0       	ldi	r19, 0x00	; 0
     162:	c9 01       	movw	r24, r18
     164:	01 80       	ldd	r0, Z+1	; 0x01
     166:	02 c0       	rjmp	.+4      	; 0x16c <_ZN6Button7ReadPinEv+0x4a>
     168:	95 95       	asr	r25
     16a:	87 95       	ror	r24
     16c:	0a 94       	dec	r0
     16e:	e2 f7       	brpl	.-8      	; 0x168 <_ZN6Button7ReadPinEv+0x46>
     170:	81 70       	andi	r24, 0x01	; 1
     172:	91 e0       	ldi	r25, 0x01	; 1
     174:	89 27       	eor	r24, r25
     176:	08 95       	ret
     178:	80 e0       	ldi	r24, 0x00	; 0
     17a:	08 95       	ret

0000017c <_ZN6Button4ScanEv>:
     17c:	cf 93       	push	r28
     17e:	df 93       	push	r29
     180:	ec 01       	movw	r28, r24
     182:	cf df       	rcall	.-98     	; 0x122 <_ZN6Button7ReadPinEv>
     184:	88 23       	and	r24, r24
     186:	89 f0       	breq	.+34     	; 0x1aa <_ZN6Button4ScanEv+0x2e>
     188:	8d 81       	ldd	r24, Y+5	; 0x05
     18a:	9e 81       	ldd	r25, Y+6	; 0x06
     18c:	01 96       	adiw	r24, 0x01	; 1
     18e:	9e 83       	std	Y+6, r25	; 0x06
     190:	8d 83       	std	Y+5, r24	; 0x05
     192:	2b 81       	ldd	r18, Y+3	; 0x03
     194:	3c 81       	ldd	r19, Y+4	; 0x04
     196:	28 17       	cp	r18, r24
     198:	39 07       	cpc	r19, r25
     19a:	9c f4       	brge	.+38     	; 0x1c2 <_ZN6Button4ScanEv+0x46>
     19c:	3e 83       	std	Y+6, r19	; 0x06
     19e:	2d 83       	std	Y+5, r18	; 0x05
     1a0:	81 e0       	ldi	r24, 0x01	; 1
     1a2:	90 e0       	ldi	r25, 0x00	; 0
     1a4:	9a 87       	std	Y+10, r25	; 0x0a
     1a6:	89 87       	std	Y+9, r24	; 0x09
     1a8:	0c c0       	rjmp	.+24     	; 0x1c2 <_ZN6Button4ScanEv+0x46>
     1aa:	1e 82       	std	Y+6, r1	; 0x06
     1ac:	1d 82       	std	Y+5, r1	; 0x05
     1ae:	89 85       	ldd	r24, Y+9	; 0x09
     1b0:	9a 85       	ldd	r25, Y+10	; 0x0a
     1b2:	89 2b       	or	r24, r25
     1b4:	21 f0       	breq	.+8      	; 0x1be <_ZN6Button4ScanEv+0x42>
     1b6:	81 e0       	ldi	r24, 0x01	; 1
     1b8:	90 e0       	ldi	r25, 0x00	; 0
     1ba:	98 87       	std	Y+8, r25	; 0x08
     1bc:	8f 83       	std	Y+7, r24	; 0x07
     1be:	1a 86       	std	Y+10, r1	; 0x0a
     1c0:	19 86       	std	Y+9, r1	; 0x09
     1c2:	df 91       	pop	r29
     1c4:	cf 91       	pop	r28
     1c6:	08 95       	ret

000001c8 <_ZN5Input4InitEci>:
     1c8:	fc 01       	movw	r30, r24
     1ca:	60 83       	st	Z, r22
     1cc:	41 83       	std	Z+1, r20	; 0x01
     1ce:	52 83       	std	Z+2, r21	; 0x02
     1d0:	63 34       	cpi	r22, 0x43	; 67
     1d2:	a1 f0       	breq	.+40     	; 0x1fc <_ZN5Input4InitEci+0x34>
     1d4:	64 34       	cpi	r22, 0x44	; 68
     1d6:	11 f1       	breq	.+68     	; 0x21c <_ZN5Input4InitEci+0x54>
     1d8:	62 34       	cpi	r22, 0x42	; 66
     1da:	79 f5       	brne	.+94     	; 0x23a <_ZN5Input4InitEci+0x72>
     1dc:	27 b3       	in	r18, 0x17	; 23
     1de:	81 e0       	ldi	r24, 0x01	; 1
     1e0:	90 e0       	ldi	r25, 0x00	; 0
     1e2:	02 c0       	rjmp	.+4      	; 0x1e8 <_ZN5Input4InitEci+0x20>
     1e4:	88 0f       	add	r24, r24
     1e6:	99 1f       	adc	r25, r25
     1e8:	4a 95       	dec	r20
     1ea:	e2 f7       	brpl	.-8      	; 0x1e4 <_ZN5Input4InitEci+0x1c>
     1ec:	98 2f       	mov	r25, r24
     1ee:	90 95       	com	r25
     1f0:	92 23       	and	r25, r18
     1f2:	97 bb       	out	0x17, r25	; 23
     1f4:	98 b3       	in	r25, 0x18	; 24
     1f6:	89 2b       	or	r24, r25
     1f8:	88 bb       	out	0x18, r24	; 24
     1fa:	08 95       	ret
     1fc:	24 b3       	in	r18, 0x14	; 20
     1fe:	81 e0       	ldi	r24, 0x01	; 1
     200:	90 e0       	ldi	r25, 0x00	; 0
     202:	02 c0       	rjmp	.+4      	; 0x208 <_ZN5Input4InitEci+0x40>
     204:	88 0f       	add	r24, r24
     206:	99 1f       	adc	r25, r25
     208:	4a 95       	dec	r20
     20a:	e2 f7       	brpl	.-8      	; 0x204 <_ZN5Input4InitEci+0x3c>
     20c:	98 2f       	mov	r25, r24
     20e:	90 95       	com	r25
     210:	92 23       	and	r25, r18
     212:	94 bb       	out	0x14, r25	; 20
     214:	95 b3       	in	r25, 0x15	; 21
     216:	89 2b       	or	r24, r25
     218:	85 bb       	out	0x15, r24	; 21
     21a:	08 95       	ret
     21c:	21 b3       	in	r18, 0x11	; 17
     21e:	81 e0       	ldi	r24, 0x01	; 1
     220:	90 e0       	ldi	r25, 0x00	; 0
     222:	02 c0       	rjmp	.+4      	; 0x228 <_ZN5Input4InitEci+0x60>
     224:	88 0f       	add	r24, r24
     226:	99 1f       	adc	r25, r25
     228:	4a 95       	dec	r20
     22a:	e2 f7       	brpl	.-8      	; 0x224 <_ZN5Input4InitEci+0x5c>
     22c:	98 2f       	mov	r25, r24
     22e:	90 95       	com	r25
     230:	92 23       	and	r25, r18
     232:	91 bb       	out	0x11, r25	; 17
     234:	92 b3       	in	r25, 0x12	; 18
     236:	89 2b       	or	r24, r25
     238:	82 bb       	out	0x12, r24	; 18
     23a:	08 95       	ret

0000023c <_ZN5Input4ReadEv>:
     23c:	fc 01       	movw	r30, r24
     23e:	90 81       	ld	r25, Z
     240:	93 34       	cpi	r25, 0x43	; 67
     242:	79 f0       	breq	.+30     	; 0x262 <_ZN5Input4ReadEv+0x26>
     244:	94 34       	cpi	r25, 0x44	; 68
     246:	c1 f0       	breq	.+48     	; 0x278 <_ZN5Input4ReadEv+0x3c>
     248:	92 34       	cpi	r25, 0x42	; 66
     24a:	19 f5       	brne	.+70     	; 0x292 <_ZN5Input4ReadEv+0x56>
     24c:	26 b3       	in	r18, 0x16	; 22
     24e:	30 e0       	ldi	r19, 0x00	; 0
     250:	c9 01       	movw	r24, r18
     252:	01 80       	ldd	r0, Z+1	; 0x01
     254:	02 c0       	rjmp	.+4      	; 0x25a <_ZN5Input4ReadEv+0x1e>
     256:	95 95       	asr	r25
     258:	87 95       	ror	r24
     25a:	0a 94       	dec	r0
     25c:	e2 f7       	brpl	.-8      	; 0x256 <_ZN5Input4ReadEv+0x1a>
     25e:	81 70       	andi	r24, 0x01	; 1
     260:	15 c0       	rjmp	.+42     	; 0x28c <_ZN5Input4ReadEv+0x50>
     262:	23 b3       	in	r18, 0x13	; 19
     264:	30 e0       	ldi	r19, 0x00	; 0
     266:	c9 01       	movw	r24, r18
     268:	01 80       	ldd	r0, Z+1	; 0x01
     26a:	02 c0       	rjmp	.+4      	; 0x270 <_ZN5Input4ReadEv+0x34>
     26c:	95 95       	asr	r25
     26e:	87 95       	ror	r24
     270:	0a 94       	dec	r0
     272:	e2 f7       	brpl	.-8      	; 0x26c <_ZN5Input4ReadEv+0x30>
     274:	81 70       	andi	r24, 0x01	; 1
     276:	0a c0       	rjmp	.+20     	; 0x28c <_ZN5Input4ReadEv+0x50>
     278:	20 b3       	in	r18, 0x10	; 16
     27a:	30 e0       	ldi	r19, 0x00	; 0
     27c:	c9 01       	movw	r24, r18
     27e:	01 80       	ldd	r0, Z+1	; 0x01
     280:	02 c0       	rjmp	.+4      	; 0x286 <_ZN5Input4ReadEv+0x4a>
     282:	95 95       	asr	r25
     284:	87 95       	ror	r24
     286:	0a 94       	dec	r0
     288:	e2 f7       	brpl	.-8      	; 0x282 <_ZN5Input4ReadEv+0x46>
     28a:	81 70       	andi	r24, 0x01	; 1
     28c:	91 e0       	ldi	r25, 0x01	; 1
     28e:	89 27       	eor	r24, r25
     290:	08 95       	ret
     292:	80 e0       	ldi	r24, 0x00	; 0
     294:	08 95       	ret

00000296 <_Z8SPI_initv>:
		n /= 10;
	} while (n);
	if (ng) {
		Send_SPI(i+1, 0xA); //символ -
	}
}
     296:	84 b3       	in	r24, 0x14	; 20
     298:	88 63       	ori	r24, 0x38	; 56
     29a:	84 bb       	out	0x14, r24	; 20
     29c:	85 b3       	in	r24, 0x15	; 21
     29e:	87 7c       	andi	r24, 0xC7	; 199
     2a0:	85 bb       	out	0x15, r24	; 21
     2a2:	08 95       	ret

000002a4 <_Z20SPI_SendByte_SHD0032c>:
     2a4:	ab 9a       	sbi	0x15, 3	; 21
     2a6:	88 23       	and	r24, r24
     2a8:	14 f4       	brge	.+4      	; 0x2ae <_Z20SPI_SendByte_SHD0032c+0xa>
     2aa:	ac 9a       	sbi	0x15, 4	; 21
     2ac:	01 c0       	rjmp	.+2      	; 0x2b0 <_Z20SPI_SendByte_SHD0032c+0xc>
     2ae:	ac 98       	cbi	0x15, 4	; 21
     2b0:	ab 98       	cbi	0x15, 3	; 21
     2b2:	ab 9a       	sbi	0x15, 3	; 21
     2b4:	86 ff       	sbrs	r24, 6
     2b6:	02 c0       	rjmp	.+4      	; 0x2bc <_Z20SPI_SendByte_SHD0032c+0x18>
     2b8:	ac 9a       	sbi	0x15, 4	; 21
     2ba:	01 c0       	rjmp	.+2      	; 0x2be <_Z20SPI_SendByte_SHD0032c+0x1a>
     2bc:	ac 98       	cbi	0x15, 4	; 21
     2be:	ab 98       	cbi	0x15, 3	; 21
     2c0:	ab 9a       	sbi	0x15, 3	; 21
     2c2:	85 ff       	sbrs	r24, 5
     2c4:	02 c0       	rjmp	.+4      	; 0x2ca <_Z20SPI_SendByte_SHD0032c+0x26>
     2c6:	ac 9a       	sbi	0x15, 4	; 21
     2c8:	01 c0       	rjmp	.+2      	; 0x2cc <_Z20SPI_SendByte_SHD0032c+0x28>
     2ca:	ac 98       	cbi	0x15, 4	; 21
     2cc:	ab 98       	cbi	0x15, 3	; 21
     2ce:	ab 9a       	sbi	0x15, 3	; 21
     2d0:	84 ff       	sbrs	r24, 4
     2d2:	02 c0       	rjmp	.+4      	; 0x2d8 <_Z20SPI_SendByte_SHD0032c+0x34>
     2d4:	ac 9a       	sbi	0x15, 4	; 21
     2d6:	01 c0       	rjmp	.+2      	; 0x2da <_Z20SPI_SendByte_SHD0032c+0x36>
     2d8:	ac 98       	cbi	0x15, 4	; 21
     2da:	ab 98       	cbi	0x15, 3	; 21
     2dc:	ab 9a       	sbi	0x15, 3	; 21
     2de:	83 ff       	sbrs	r24, 3
     2e0:	02 c0       	rjmp	.+4      	; 0x2e6 <_Z20SPI_SendByte_SHD0032c+0x42>
     2e2:	ac 9a       	sbi	0x15, 4	; 21
     2e4:	01 c0       	rjmp	.+2      	; 0x2e8 <_Z20SPI_SendByte_SHD0032c+0x44>
     2e6:	ac 98       	cbi	0x15, 4	; 21
     2e8:	ab 98       	cbi	0x15, 3	; 21
     2ea:	ab 9a       	sbi	0x15, 3	; 21
     2ec:	82 ff       	sbrs	r24, 2
     2ee:	02 c0       	rjmp	.+4      	; 0x2f4 <_Z20SPI_SendByte_SHD0032c+0x50>
     2f0:	ac 9a       	sbi	0x15, 4	; 21
     2f2:	01 c0       	rjmp	.+2      	; 0x2f6 <_Z20SPI_SendByte_SHD0032c+0x52>
     2f4:	ac 98       	cbi	0x15, 4	; 21
     2f6:	ab 98       	cbi	0x15, 3	; 21
     2f8:	ab 9a       	sbi	0x15, 3	; 21
     2fa:	81 ff       	sbrs	r24, 1
     2fc:	02 c0       	rjmp	.+4      	; 0x302 <_Z20SPI_SendByte_SHD0032c+0x5e>
     2fe:	ac 9a       	sbi	0x15, 4	; 21
     300:	01 c0       	rjmp	.+2      	; 0x304 <_Z20SPI_SendByte_SHD0032c+0x60>
     302:	ac 98       	cbi	0x15, 4	; 21
     304:	ab 98       	cbi	0x15, 3	; 21
     306:	ab 9a       	sbi	0x15, 3	; 21
     308:	80 ff       	sbrs	r24, 0
     30a:	02 c0       	rjmp	.+4      	; 0x310 <_Z20SPI_SendByte_SHD0032c+0x6c>
     30c:	ac 9a       	sbi	0x15, 4	; 21
     30e:	01 c0       	rjmp	.+2      	; 0x312 <_Z20SPI_SendByte_SHD0032c+0x6e>
     310:	ac 98       	cbi	0x15, 4	; 21
     312:	ab 98       	cbi	0x15, 3	; 21
     314:	ab 98       	cbi	0x15, 3	; 21
     316:	08 95       	ret

00000318 <_Z16Send_SPI_SHD0032cccc>:
     318:	1f 93       	push	r17
     31a:	cf 93       	push	r28
     31c:	df 93       	push	r29
     31e:	16 2f       	mov	r17, r22
     320:	d4 2f       	mov	r29, r20
     322:	c2 2f       	mov	r28, r18
     324:	ad 98       	cbi	0x15, 5	; 21
     326:	ac 98       	cbi	0x15, 4	; 21
     328:	bd df       	rcall	.-134    	; 0x2a4 <_Z20SPI_SendByte_SHD0032c>
     32a:	81 2f       	mov	r24, r17
     32c:	bb df       	rcall	.-138    	; 0x2a4 <_Z20SPI_SendByte_SHD0032c>
     32e:	8d 2f       	mov	r24, r29
     330:	b9 df       	rcall	.-142    	; 0x2a4 <_Z20SPI_SendByte_SHD0032c>
     332:	8c 2f       	mov	r24, r28
     334:	b7 df       	rcall	.-146    	; 0x2a4 <_Z20SPI_SendByte_SHD0032c>
     336:	ac 98       	cbi	0x15, 4	; 21
     338:	ad 9a       	sbi	0x15, 5	; 21
     33a:	8d e0       	ldi	r24, 0x0D	; 13
     33c:	8a 95       	dec	r24
     33e:	f1 f7       	brne	.-4      	; 0x33c <_Z16Send_SPI_SHD0032cccc+0x24>
     340:	00 00       	nop
     342:	ad 98       	cbi	0x15, 5	; 21
     344:	df 91       	pop	r29
     346:	cf 91       	pop	r28
     348:	1f 91       	pop	r17
     34a:	08 95       	ret

0000034c <_Z8SHD0032Gl>:
     34c:	cf 93       	push	r28
     34e:	df 93       	push	r29
     350:	00 d0       	rcall	.+0      	; 0x352 <_Z8SHD0032Gl+0x6>
     352:	00 d0       	rcall	.+0      	; 0x354 <_Z8SHD0032Gl+0x8>
     354:	cd b7       	in	r28, 0x3d	; 61
     356:	de b7       	in	r29, 0x3e	; 62
     358:	69 83       	std	Y+1, r22	; 0x01
     35a:	7a 83       	std	Y+2, r23	; 0x02
     35c:	8b 83       	std	Y+3, r24	; 0x03
     35e:	9c 83       	std	Y+4, r25	; 0x04
     360:	89 81       	ldd	r24, Y+1	; 0x01
     362:	9a 81       	ldd	r25, Y+2	; 0x02
     364:	ab 81       	ldd	r26, Y+3	; 0x03
     366:	bc 81       	ldd	r27, Y+4	; 0x04
     368:	8e 30       	cpi	r24, 0x0E	; 14
     36a:	91 05       	cpc	r25, r1
     36c:	f8 f4       	brcc	.+62     	; 0x3ac <_Z8SHD0032Gl+0x60>
     36e:	fc 01       	movw	r30, r24
     370:	ed 5e       	subi	r30, 0xED	; 237
     372:	ff 4f       	sbci	r31, 0xFF	; 255
     374:	09 94       	ijmp
     376:	2e e7       	ldi	r18, 0x7E	; 126
     378:	19 c0       	rjmp	.+50     	; 0x3ac <_Z8SHD0032Gl+0x60>
     37a:	2c e0       	ldi	r18, 0x0C	; 12
     37c:	17 c0       	rjmp	.+46     	; 0x3ac <_Z8SHD0032Gl+0x60>
     37e:	26 eb       	ldi	r18, 0xB6	; 182
     380:	15 c0       	rjmp	.+42     	; 0x3ac <_Z8SHD0032Gl+0x60>
     382:	2e e9       	ldi	r18, 0x9E	; 158
     384:	13 c0       	rjmp	.+38     	; 0x3ac <_Z8SHD0032Gl+0x60>
     386:	2c ec       	ldi	r18, 0xCC	; 204
     388:	11 c0       	rjmp	.+34     	; 0x3ac <_Z8SHD0032Gl+0x60>
     38a:	2a ed       	ldi	r18, 0xDA	; 218
     38c:	0f c0       	rjmp	.+30     	; 0x3ac <_Z8SHD0032Gl+0x60>
     38e:	2a ef       	ldi	r18, 0xFA	; 250
     390:	0d c0       	rjmp	.+26     	; 0x3ac <_Z8SHD0032Gl+0x60>
     392:	2e e0       	ldi	r18, 0x0E	; 14
     394:	0b c0       	rjmp	.+22     	; 0x3ac <_Z8SHD0032Gl+0x60>
     396:	2e ef       	ldi	r18, 0xFE	; 254
     398:	09 c0       	rjmp	.+18     	; 0x3ac <_Z8SHD0032Gl+0x60>
     39a:	2e ed       	ldi	r18, 0xDE	; 222
     39c:	07 c0       	rjmp	.+14     	; 0x3ac <_Z8SHD0032Gl+0x60>
     39e:	2e ee       	ldi	r18, 0xEE	; 238
     3a0:	05 c0       	rjmp	.+10     	; 0x3ac <_Z8SHD0032Gl+0x60>
     3a2:	22 e6       	ldi	r18, 0x62	; 98
     3a4:	03 c0       	rjmp	.+6      	; 0x3ac <_Z8SHD0032Gl+0x60>
     3a6:	22 e7       	ldi	r18, 0x72	; 114
     3a8:	01 c0       	rjmp	.+2      	; 0x3ac <_Z8SHD0032Gl+0x60>
     3aa:	26 ed       	ldi	r18, 0xD6	; 214
     3ac:	82 2f       	mov	r24, r18
     3ae:	0f 90       	pop	r0
     3b0:	0f 90       	pop	r0
     3b2:	0f 90       	pop	r0
     3b4:	0f 90       	pop	r0
     3b6:	df 91       	pop	r29
     3b8:	cf 91       	pop	r28
     3ba:	08 95       	ret

000003bc <_Z15LED_DisplaySendlii>:

void LED_DisplaySend(volatile long n, int point, int sumbol){
     3bc:	2f 92       	push	r2
     3be:	3f 92       	push	r3
     3c0:	4f 92       	push	r4
     3c2:	5f 92       	push	r5
     3c4:	6f 92       	push	r6
     3c6:	7f 92       	push	r7
     3c8:	8f 92       	push	r8
     3ca:	9f 92       	push	r9
     3cc:	af 92       	push	r10
     3ce:	bf 92       	push	r11
     3d0:	cf 92       	push	r12
     3d2:	df 92       	push	r13
     3d4:	ef 92       	push	r14
     3d6:	ff 92       	push	r15
     3d8:	0f 93       	push	r16
     3da:	1f 93       	push	r17
     3dc:	cf 93       	push	r28
     3de:	df 93       	push	r29
     3e0:	cd b7       	in	r28, 0x3d	; 61
     3e2:	de b7       	in	r29, 0x3e	; 62
     3e4:	28 97       	sbiw	r28, 0x08	; 8
     3e6:	0f b6       	in	r0, 0x3f	; 63
     3e8:	f8 94       	cli
     3ea:	de bf       	out	0x3e, r29	; 62
     3ec:	0f be       	out	0x3f, r0	; 63
     3ee:	cd bf       	out	0x3d, r28	; 61
     3f0:	69 83       	std	Y+1, r22	; 0x01
     3f2:	7a 83       	std	Y+2, r23	; 0x02
     3f4:	8b 83       	std	Y+3, r24	; 0x03
     3f6:	9c 83       	std	Y+4, r25	; 0x04
     3f8:	1a 01       	movw	r2, r20
	
	char symbol_0, symbol_1, symbol_2, symbol_3, symbol_4;
	char SHDsymbol_0, SHDsymbol_1, SHDsymbol_2, SHDsymbol_3, SHDsymbol_4;
	
	SHDsymbol_0 = SHD0032G(sumbol);
     3fa:	b9 01       	movw	r22, r18
     3fc:	33 0f       	add	r19, r19
     3fe:	88 0b       	sbc	r24, r24
     400:	99 0b       	sbc	r25, r25
     402:	a4 df       	rcall	.-184    	; 0x34c <_Z8SHD0032Gl>
     404:	08 2f       	mov	r16, r24

	if (n == 0) {
     406:	89 81       	ldd	r24, Y+1	; 0x01
     408:	9a 81       	ldd	r25, Y+2	; 0x02
     40a:	ab 81       	ldd	r26, Y+3	; 0x03
     40c:	bc 81       	ldd	r27, Y+4	; 0x04
     40e:	89 2b       	or	r24, r25
     410:	8a 2b       	or	r24, r26
     412:	8b 2b       	or	r24, r27
     414:	51 f4       	brne	.+20     	; 0x42a <__LOCK_REGION_LENGTH__+0x2a>
		SHDsymbol_1 = SHD0032G(0);
     416:	60 e0       	ldi	r22, 0x00	; 0
     418:	70 e0       	ldi	r23, 0x00	; 0
     41a:	cb 01       	movw	r24, r22
     41c:	97 df       	rcall	.-210    	; 0x34c <_Z8SHD0032Gl>
		SHDsymbol_2 = 0b00000000;
		SHDsymbol_3 = 0b00000000;
		SHDsymbol_4 = 0b00000000;
		Send_SPI_SHD0032(SHDsymbol_0,SHDsymbol_1,SHDsymbol_2,SHDsymbol_3);
     41e:	20 e0       	ldi	r18, 0x00	; 0
     420:	40 e0       	ldi	r20, 0x00	; 0
     422:	68 2f       	mov	r22, r24
     424:	80 2f       	mov	r24, r16
     426:	78 df       	rcall	.-272    	; 0x318 <_Z16Send_SPI_SHD0032cccc>
		return;
     428:	8d c0       	rjmp	.+282    	; 0x544 <__stack+0xe5>
	}
	
	
	symbol_1 = n%10;
     42a:	69 81       	ldd	r22, Y+1	; 0x01
     42c:	7a 81       	ldd	r23, Y+2	; 0x02
     42e:	8b 81       	ldd	r24, Y+3	; 0x03
     430:	9c 81       	ldd	r25, Y+4	; 0x04
	symbol_2 = n/10%10;
     432:	49 80       	ldd	r4, Y+1	; 0x01
     434:	5a 80       	ldd	r5, Y+2	; 0x02
     436:	6b 80       	ldd	r6, Y+3	; 0x03
     438:	7c 80       	ldd	r7, Y+4	; 0x04
	symbol_3 = n/100%10;
     43a:	89 80       	ldd	r8, Y+1	; 0x01
     43c:	9a 80       	ldd	r9, Y+2	; 0x02
     43e:	ab 80       	ldd	r10, Y+3	; 0x03
     440:	bc 80       	ldd	r11, Y+4	; 0x04
	symbol_4 = n/1000%10;
     442:	29 81       	ldd	r18, Y+1	; 0x01
     444:	3a 81       	ldd	r19, Y+2	; 0x02
     446:	4b 81       	ldd	r20, Y+3	; 0x03
     448:	5c 81       	ldd	r21, Y+4	; 0x04
     44a:	2d 83       	std	Y+5, r18	; 0x05
     44c:	3e 83       	std	Y+6, r19	; 0x06
     44e:	4f 83       	std	Y+7, r20	; 0x07
     450:	58 87       	std	Y+8, r21	; 0x08
	
	SHDsymbol_1 = SHD0032G(symbol_1);
     452:	0f 2e       	mov	r0, r31
     454:	fa e0       	ldi	r31, 0x0A	; 10
     456:	cf 2e       	mov	r12, r31
     458:	d1 2c       	mov	r13, r1
     45a:	e1 2c       	mov	r14, r1
     45c:	f1 2c       	mov	r15, r1
     45e:	f0 2d       	mov	r31, r0
     460:	a7 01       	movw	r20, r14
     462:	96 01       	movw	r18, r12
     464:	e9 db       	rcall	.-2094   	; 0xfffffc38 <__eeprom_end+0xff7efc38>
     466:	77 27       	eor	r23, r23
     468:	88 27       	eor	r24, r24
     46a:	99 27       	eor	r25, r25
     46c:	6f df       	rcall	.-290    	; 0x34c <_Z8SHD0032Gl>
     46e:	18 2f       	mov	r17, r24
	SHDsymbol_2 = SHD0032G(symbol_2);
     470:	c3 01       	movw	r24, r6
     472:	b2 01       	movw	r22, r4
     474:	a7 01       	movw	r20, r14
     476:	96 01       	movw	r18, r12
     478:	df db       	rcall	.-2114   	; 0xfffffc38 <__eeprom_end+0xff7efc38>
     47a:	ca 01       	movw	r24, r20
     47c:	b9 01       	movw	r22, r18
     47e:	a7 01       	movw	r20, r14
     480:	96 01       	movw	r18, r12
     482:	da db       	rcall	.-2124   	; 0xfffffc38 <__eeprom_end+0xff7efc38>
     484:	77 27       	eor	r23, r23
     486:	88 27       	eor	r24, r24
     488:	99 27       	eor	r25, r25
     48a:	60 df       	rcall	.-320    	; 0x34c <_Z8SHD0032Gl>
     48c:	78 2e       	mov	r7, r24
	SHDsymbol_3 = SHD0032G(symbol_3);
     48e:	c5 01       	movw	r24, r10
     490:	b4 01       	movw	r22, r8
     492:	24 e6       	ldi	r18, 0x64	; 100
     494:	30 e0       	ldi	r19, 0x00	; 0
     496:	40 e0       	ldi	r20, 0x00	; 0
     498:	50 e0       	ldi	r21, 0x00	; 0
     49a:	ce db       	rcall	.-2148   	; 0xfffffc38 <__eeprom_end+0xff7efc38>
     49c:	ca 01       	movw	r24, r20
     49e:	b9 01       	movw	r22, r18
     4a0:	a7 01       	movw	r20, r14
     4a2:	96 01       	movw	r18, r12
     4a4:	c9 db       	rcall	.-2158   	; 0xfffffc38 <__eeprom_end+0xff7efc38>
     4a6:	77 27       	eor	r23, r23
     4a8:	88 27       	eor	r24, r24
     4aa:	99 27       	eor	r25, r25
     4ac:	4f df       	rcall	.-354    	; 0x34c <_Z8SHD0032Gl>
     4ae:	b8 2e       	mov	r11, r24
	SHDsymbol_4 = SHD0032G(symbol_4);
     4b0:	6d 81       	ldd	r22, Y+5	; 0x05
     4b2:	7e 81       	ldd	r23, Y+6	; 0x06
     4b4:	8f 81       	ldd	r24, Y+7	; 0x07
     4b6:	98 85       	ldd	r25, Y+8	; 0x08
     4b8:	28 ee       	ldi	r18, 0xE8	; 232
     4ba:	33 e0       	ldi	r19, 0x03	; 3
     4bc:	40 e0       	ldi	r20, 0x00	; 0
     4be:	50 e0       	ldi	r21, 0x00	; 0
     4c0:	bb db       	rcall	.-2186   	; 0xfffffc38 <__eeprom_end+0xff7efc38>
     4c2:	ca 01       	movw	r24, r20
     4c4:	b9 01       	movw	r22, r18
     4c6:	a7 01       	movw	r20, r14
     4c8:	96 01       	movw	r18, r12
     4ca:	b6 db       	rcall	.-2196   	; 0xfffffc38 <__eeprom_end+0xff7efc38>
     4cc:	77 27       	eor	r23, r23
     4ce:	88 27       	eor	r24, r24
     4d0:	99 27       	eor	r25, r25
     4d2:	3c df       	rcall	.-392    	; 0x34c <_Z8SHD0032Gl>
	

	
	if(n<1000){SHDsymbol_4 = 0b00000000;}
     4d4:	89 81       	ldd	r24, Y+1	; 0x01
     4d6:	9a 81       	ldd	r25, Y+2	; 0x02
     4d8:	ab 81       	ldd	r26, Y+3	; 0x03
     4da:	bc 81       	ldd	r27, Y+4	; 0x04
	if(n<100&&point<2 ){SHDsymbol_3 = 0b00000000;}
     4dc:	89 81       	ldd	r24, Y+1	; 0x01
     4de:	9a 81       	ldd	r25, Y+2	; 0x02
     4e0:	ab 81       	ldd	r26, Y+3	; 0x03
     4e2:	bc 81       	ldd	r27, Y+4	; 0x04
     4e4:	84 36       	cpi	r24, 0x64	; 100
     4e6:	91 05       	cpc	r25, r1
     4e8:	a1 05       	cpc	r26, r1
     4ea:	b1 05       	cpc	r27, r1
     4ec:	2c f4       	brge	.+10     	; 0x4f8 <__stack+0x99>
     4ee:	32 e0       	ldi	r19, 0x02	; 2
     4f0:	23 16       	cp	r2, r19
     4f2:	31 04       	cpc	r3, r1
     4f4:	0c f4       	brge	.+2      	; 0x4f8 <__stack+0x99>
     4f6:	b1 2c       	mov	r11, r1
	if(n<10&&point==0){SHDsymbol_2 = 0b00000000;}
     4f8:	89 81       	ldd	r24, Y+1	; 0x01
     4fa:	9a 81       	ldd	r25, Y+2	; 0x02
     4fc:	ab 81       	ldd	r26, Y+3	; 0x03
     4fe:	bc 81       	ldd	r27, Y+4	; 0x04
     500:	0a 97       	sbiw	r24, 0x0a	; 10
     502:	a1 05       	cpc	r26, r1
     504:	b1 05       	cpc	r27, r1
     506:	1c f4       	brge	.+6      	; 0x50e <__stack+0xaf>
     508:	21 14       	cp	r2, r1
     50a:	31 04       	cpc	r3, r1
     50c:	a9 f0       	breq	.+42     	; 0x538 <__stack+0xd9>
	
	
	switch(point){
     50e:	42 e0       	ldi	r20, 0x02	; 2
     510:	24 16       	cp	r2, r20
     512:	31 04       	cpc	r3, r1
     514:	49 f0       	breq	.+18     	; 0x528 <__stack+0xc9>
     516:	53 e0       	ldi	r21, 0x03	; 3
     518:	25 16       	cp	r2, r21
     51a:	31 04       	cpc	r3, r1
     51c:	49 f0       	breq	.+18     	; 0x530 <__stack+0xd1>
     51e:	2a 94       	dec	r2
     520:	23 28       	or	r2, r3
     522:	59 f4       	brne	.+22     	; 0x53a <__stack+0xdb>
		case 1: SHDsymbol_1 |=(1<<0);break;
     524:	11 60       	ori	r17, 0x01	; 1
     526:	09 c0       	rjmp	.+18     	; 0x53a <__stack+0xdb>
		case 2: SHDsymbol_2 |=(1<<0);break;
     528:	27 2d       	mov	r18, r7
     52a:	21 60       	ori	r18, 0x01	; 1
     52c:	72 2e       	mov	r7, r18
     52e:	05 c0       	rjmp	.+10     	; 0x53a <__stack+0xdb>
		case 3: SHDsymbol_3 |=(1<<0);break;
     530:	3b 2d       	mov	r19, r11
     532:	31 60       	ori	r19, 0x01	; 1
     534:	b3 2e       	mov	r11, r19
     536:	01 c0       	rjmp	.+2      	; 0x53a <__stack+0xdb>
	

	
	if(n<1000){SHDsymbol_4 = 0b00000000;}
	if(n<100&&point<2 ){SHDsymbol_3 = 0b00000000;}
	if(n<10&&point==0){SHDsymbol_2 = 0b00000000;}
     538:	71 2c       	mov	r7, r1
		case 2: SHDsymbol_2 |=(1<<0);break;
		case 3: SHDsymbol_3 |=(1<<0);break;
		case 4: SHDsymbol_4 |=(1<<0);break;
	}
	
	Send_SPI_SHD0032(SHDsymbol_0, SHDsymbol_1,SHDsymbol_2,SHDsymbol_3); 
     53a:	2b 2d       	mov	r18, r11
     53c:	47 2d       	mov	r20, r7
     53e:	61 2f       	mov	r22, r17
     540:	80 2f       	mov	r24, r16
     542:	ea de       	rcall	.-556    	; 0x318 <_Z16Send_SPI_SHD0032cccc>
	
	}
     544:	28 96       	adiw	r28, 0x08	; 8
     546:	0f b6       	in	r0, 0x3f	; 63
     548:	f8 94       	cli
     54a:	de bf       	out	0x3e, r29	; 62
     54c:	0f be       	out	0x3f, r0	; 63
     54e:	cd bf       	out	0x3d, r28	; 61
     550:	df 91       	pop	r29
     552:	cf 91       	pop	r28
     554:	1f 91       	pop	r17
     556:	0f 91       	pop	r16
     558:	ff 90       	pop	r15
     55a:	ef 90       	pop	r14
     55c:	df 90       	pop	r13
     55e:	cf 90       	pop	r12
     560:	bf 90       	pop	r11
     562:	af 90       	pop	r10
     564:	9f 90       	pop	r9
     566:	8f 90       	pop	r8
     568:	7f 90       	pop	r7
     56a:	6f 90       	pop	r6
     56c:	5f 90       	pop	r5
     56e:	4f 90       	pop	r4
     570:	3f 90       	pop	r3
     572:	2f 90       	pop	r2
     574:	08 95       	ret

00000576 <_Z18LED_DisplayTime_msl>:


void LED_DisplayTime_ms(volatile long n)
{
     576:	cf 93       	push	r28
     578:	df 93       	push	r29
     57a:	00 d0       	rcall	.+0      	; 0x57c <_Z18LED_DisplayTime_msl+0x6>
     57c:	00 d0       	rcall	.+0      	; 0x57e <_Z18LED_DisplayTime_msl+0x8>
     57e:	cd b7       	in	r28, 0x3d	; 61
     580:	de b7       	in	r29, 0x3e	; 62
     582:	69 83       	std	Y+1, r22	; 0x01
     584:	7a 83       	std	Y+2, r23	; 0x02
     586:	8b 83       	std	Y+3, r24	; 0x03
     588:	9c 83       	std	Y+4, r25	; 0x04
	LED_DisplaySend(n/100, 1, 12);
     58a:	69 81       	ldd	r22, Y+1	; 0x01
     58c:	7a 81       	ldd	r23, Y+2	; 0x02
     58e:	8b 81       	ldd	r24, Y+3	; 0x03
     590:	9c 81       	ldd	r25, Y+4	; 0x04
     592:	24 e6       	ldi	r18, 0x64	; 100
     594:	30 e0       	ldi	r19, 0x00	; 0
     596:	40 e0       	ldi	r20, 0x00	; 0
     598:	50 e0       	ldi	r21, 0x00	; 0
     59a:	4e db       	rcall	.-2404   	; 0xfffffc38 <__eeprom_end+0xff7efc38>
     59c:	ca 01       	movw	r24, r20
     59e:	b9 01       	movw	r22, r18
     5a0:	2c e0       	ldi	r18, 0x0C	; 12
     5a2:	30 e0       	ldi	r19, 0x00	; 0
     5a4:	41 e0       	ldi	r20, 0x01	; 1
     5a6:	50 e0       	ldi	r21, 0x00	; 0
     5a8:	09 df       	rcall	.-494    	; 0x3bc <_Z15LED_DisplaySendlii>
}
     5aa:	0f 90       	pop	r0
     5ac:	0f 90       	pop	r0
     5ae:	0f 90       	pop	r0
     5b0:	0f 90       	pop	r0
     5b2:	df 91       	pop	r29
     5b4:	cf 91       	pop	r28
     5b6:	08 95       	ret

000005b8 <_Z18LED_DisplayCurrentl>:

void LED_DisplayCurrent(volatile long n){
     5b8:	cf 93       	push	r28
     5ba:	df 93       	push	r29
     5bc:	00 d0       	rcall	.+0      	; 0x5be <_Z18LED_DisplayCurrentl+0x6>
     5be:	00 d0       	rcall	.+0      	; 0x5c0 <_Z18LED_DisplayCurrentl+0x8>
     5c0:	cd b7       	in	r28, 0x3d	; 61
     5c2:	de b7       	in	r29, 0x3e	; 62
     5c4:	69 83       	std	Y+1, r22	; 0x01
     5c6:	7a 83       	std	Y+2, r23	; 0x02
     5c8:	8b 83       	std	Y+3, r24	; 0x03
     5ca:	9c 83       	std	Y+4, r25	; 0x04
	LED_DisplaySend(n, 2, 10);
     5cc:	69 81       	ldd	r22, Y+1	; 0x01
     5ce:	7a 81       	ldd	r23, Y+2	; 0x02
     5d0:	8b 81       	ldd	r24, Y+3	; 0x03
     5d2:	9c 81       	ldd	r25, Y+4	; 0x04
     5d4:	2a e0       	ldi	r18, 0x0A	; 10
     5d6:	30 e0       	ldi	r19, 0x00	; 0
     5d8:	42 e0       	ldi	r20, 0x02	; 2
     5da:	50 e0       	ldi	r21, 0x00	; 0
     5dc:	ef de       	rcall	.-546    	; 0x3bc <_Z15LED_DisplaySendlii>
}
     5de:	0f 90       	pop	r0
     5e0:	0f 90       	pop	r0
     5e2:	0f 90       	pop	r0
     5e4:	0f 90       	pop	r0
     5e6:	df 91       	pop	r29
     5e8:	cf 91       	pop	r28
     5ea:	08 95       	ret

000005ec <_Z13DidplayFeqSetv>:

void DidplayFeqSet(){
	if(ModeFeq){
     5ec:	80 91 cc 01 	lds	r24, 0x01CC	; 0x8001cc <ModeFeq>
     5f0:	88 23       	and	r24, r24
     5f2:	91 f0       	breq	.+36     	; 0x618 <_Z13DidplayFeqSetv+0x2c>
		ModeFeqCount++;
     5f4:	80 91 ca 01 	lds	r24, 0x01CA	; 0x8001ca <ModeFeqCount>
     5f8:	90 91 cb 01 	lds	r25, 0x01CB	; 0x8001cb <ModeFeqCount+0x1>
     5fc:	01 96       	adiw	r24, 0x01	; 1
     5fe:	90 93 cb 01 	sts	0x01CB, r25	; 0x8001cb <ModeFeqCount+0x1>
     602:	80 93 ca 01 	sts	0x01CA, r24	; 0x8001ca <ModeFeqCount>
		if(ModeFeqCount>10000){
     606:	81 31       	cpi	r24, 0x11	; 17
     608:	97 42       	sbci	r25, 0x27	; 39
     60a:	34 f0       	brlt	.+12     	; 0x618 <_Z13DidplayFeqSetv+0x2c>
			ModeFeq=false;
     60c:	10 92 cc 01 	sts	0x01CC, r1	; 0x8001cc <ModeFeq>
			ModeFeqCount = 0;
     610:	10 92 cb 01 	sts	0x01CB, r1	; 0x8001cb <ModeFeqCount+0x1>
     614:	10 92 ca 01 	sts	0x01CA, r1	; 0x8001ca <ModeFeqCount>
     618:	08 95       	ret

0000061a <_Z14SendInfDisplayv>:
	}
}


void SendInfDisplay(){
	if (Mode==ModeNo){
     61a:	80 91 cd 01 	lds	r24, 0x01CD	; 0x8001cd <Mode>
     61e:	90 91 ce 01 	lds	r25, 0x01CE	; 0x8001ce <Mode+0x1>
     622:	89 2b       	or	r24, r25
     624:	69 f5       	brne	.+90     	; 0x680 <_Z14SendInfDisplayv+0x66>
		if(!Rotor.RotorStopped()) {
     626:	86 ec       	ldi	r24, 0xC6	; 198
     628:	90 e0       	ldi	r25, 0x00	; 0
     62a:	7d d8       	rcall	.-3846   	; 0xfffff726 <__eeprom_end+0xff7ef726>
     62c:	81 11       	cpse	r24, r1
     62e:	0e c0       	rjmp	.+28     	; 0x64c <_Z14SendInfDisplayv+0x32>
			LED_DisplaySend(Rotor.frequency, 0, 11);
     630:	60 91 c6 00 	lds	r22, 0x00C6	; 0x8000c6 <__data_end>
     634:	70 91 c7 00 	lds	r23, 0x00C7	; 0x8000c7 <__data_end+0x1>
     638:	80 91 c8 00 	lds	r24, 0x00C8	; 0x8000c8 <__data_end+0x2>
     63c:	90 91 c9 00 	lds	r25, 0x00C9	; 0x8000c9 <__data_end+0x3>
     640:	2b e0       	ldi	r18, 0x0B	; 11
     642:	30 e0       	ldi	r19, 0x00	; 0
     644:	40 e0       	ldi	r20, 0x00	; 0
     646:	50 e0       	ldi	r21, 0x00	; 0
     648:	b9 de       	rcall	.-654    	; 0x3bc <_Z15LED_DisplaySendlii>
     64a:	1a c0       	rjmp	.+52     	; 0x680 <_Z14SendInfDisplayv+0x66>
			}else{
			if(ModeFeq){
     64c:	80 91 cc 01 	lds	r24, 0x01CC	; 0x8001cc <ModeFeq>
     650:	88 23       	and	r24, r24
     652:	71 f0       	breq	.+28     	; 0x670 <_Z14SendInfDisplayv+0x56>
				LED_DisplaySend(Rotor.frequency, 0, 11);
     654:	60 91 c6 00 	lds	r22, 0x00C6	; 0x8000c6 <__data_end>
     658:	70 91 c7 00 	lds	r23, 0x00C7	; 0x8000c7 <__data_end+0x1>
     65c:	80 91 c8 00 	lds	r24, 0x00C8	; 0x8000c8 <__data_end+0x2>
     660:	90 91 c9 00 	lds	r25, 0x00C9	; 0x8000c9 <__data_end+0x3>
     664:	2b e0       	ldi	r18, 0x0B	; 11
     666:	30 e0       	ldi	r19, 0x00	; 0
     668:	40 e0       	ldi	r20, 0x00	; 0
     66a:	50 e0       	ldi	r21, 0x00	; 0
     66c:	a7 de       	rcall	.-690    	; 0x3bc <_Z15LED_DisplaySendlii>
     66e:	08 c0       	rjmp	.+16     	; 0x680 <_Z14SendInfDisplayv+0x66>
				}else{
				LED_DisplaySend(0, 0, 11);
     670:	2b e0       	ldi	r18, 0x0B	; 11
     672:	30 e0       	ldi	r19, 0x00	; 0
     674:	40 e0       	ldi	r20, 0x00	; 0
     676:	50 e0       	ldi	r21, 0x00	; 0
     678:	60 e0       	ldi	r22, 0x00	; 0
     67a:	70 e0       	ldi	r23, 0x00	; 0
     67c:	cb 01       	movw	r24, r22
     67e:	9e de       	rcall	.-708    	; 0x3bc <_Z15LED_DisplaySendlii>
			}
			
		}
	}
	
	if(Mode==ModeSetPMW){
     680:	80 91 cd 01 	lds	r24, 0x01CD	; 0x8001cd <Mode>
     684:	90 91 ce 01 	lds	r25, 0x01CE	; 0x8001ce <Mode+0x1>
     688:	02 97       	sbiw	r24, 0x02	; 2
     68a:	69 f4       	brne	.+26     	; 0x6a6 <_Z14SendInfDisplayv+0x8c>
		LED_DisplaySend(Rotor.NPMW, 0, 13);
     68c:	60 91 f2 00 	lds	r22, 0x00F2	; 0x8000f2 <__data_end+0x2c>
     690:	70 91 f3 00 	lds	r23, 0x00F3	; 0x8000f3 <__data_end+0x2d>
     694:	07 2e       	mov	r0, r23
     696:	00 0c       	add	r0, r0
     698:	88 0b       	sbc	r24, r24
     69a:	99 0b       	sbc	r25, r25
     69c:	2d e0       	ldi	r18, 0x0D	; 13
     69e:	30 e0       	ldi	r19, 0x00	; 0
     6a0:	40 e0       	ldi	r20, 0x00	; 0
     6a2:	50 e0       	ldi	r21, 0x00	; 0
     6a4:	8b de       	rcall	.-746    	; 0x3bc <_Z15LED_DisplaySendlii>
	}
	
	if(Mode==ModeCurrent){
     6a6:	80 91 cd 01 	lds	r24, 0x01CD	; 0x8001cd <Mode>
     6aa:	90 91 ce 01 	lds	r25, 0x01CE	; 0x8001ce <Mode+0x1>
     6ae:	03 97       	sbiw	r24, 0x03	; 3
     6b0:	69 f4       	brne	.+26     	; 0x6cc <_Z14SendInfDisplayv+0xb2>
		LED_DisplaySend(adc_avarage, 2, 10);
     6b2:	60 91 ba 01 	lds	r22, 0x01BA	; 0x8001ba <adc_avarage>
     6b6:	70 91 bb 01 	lds	r23, 0x01BB	; 0x8001bb <adc_avarage+0x1>
     6ba:	80 91 bc 01 	lds	r24, 0x01BC	; 0x8001bc <adc_avarage+0x2>
     6be:	90 91 bd 01 	lds	r25, 0x01BD	; 0x8001bd <adc_avarage+0x3>
     6c2:	2a e0       	ldi	r18, 0x0A	; 10
     6c4:	30 e0       	ldi	r19, 0x00	; 0
     6c6:	42 e0       	ldi	r20, 0x02	; 2
     6c8:	50 e0       	ldi	r21, 0x00	; 0
     6ca:	78 de       	rcall	.-784    	; 0x3bc <_Z15LED_DisplaySendlii>
     6cc:	08 95       	ret

000006ce <_Z9initTimerv>:
#include  "SPI.h"
#include  "Display.h"


void initTimer(){
	TCCR1B |= (1<<WGM12); // устанавливаем режим СТС (сброс по совпадению)
     6ce:	8e b5       	in	r24, 0x2e	; 46
     6d0:	88 60       	ori	r24, 0x08	; 8
     6d2:	8e bd       	out	0x2e, r24	; 46
	TIMSK |= (1<<OCIE1A);	//устанавливаем бит разрешения прерывания 1ого счетчика по совпадению с OCR1A(H и L)
     6d4:	89 b7       	in	r24, 0x39	; 57
     6d6:	80 61       	ori	r24, 0x10	; 16
     6d8:	89 bf       	out	0x39, r24	; 57
	TCCR1B |= (1<<CS12);//установим делитель.
     6da:	8e b5       	in	r24, 0x2e	; 46
     6dc:	84 60       	ori	r24, 0x04	; 4
     6de:	8e bd       	out	0x2e, r24	; 46
	sei();
     6e0:	78 94       	sei
     6e2:	08 95       	ret

000006e4 <__vector_6>:




ISR (TIMER1_COMPA_vect)
{
     6e4:	1f 92       	push	r1
     6e6:	0f 92       	push	r0
     6e8:	0f b6       	in	r0, 0x3f	; 63
     6ea:	0f 92       	push	r0
     6ec:	11 24       	eor	r1, r1
     6ee:	2f 93       	push	r18
     6f0:	3f 93       	push	r19
     6f2:	4f 93       	push	r20
     6f4:	5f 93       	push	r21
     6f6:	6f 93       	push	r22
     6f8:	7f 93       	push	r23
     6fa:	8f 93       	push	r24
     6fc:	9f 93       	push	r25
     6fe:	af 93       	push	r26
     700:	bf 93       	push	r27
     702:	ef 93       	push	r30
     704:	ff 93       	push	r31
	Rotor.Move();
     706:	86 ec       	ldi	r24, 0xC6	; 198
     708:	90 e0       	ldi	r25, 0x00	; 0
     70a:	48 da       	rcall	.-2928   	; 0xfffffb9c <__eeprom_end+0xff7efb9c>
	Rotor.SetFrequency(Rotor.frequency);
     70c:	60 91 c6 00 	lds	r22, 0x00C6	; 0x8000c6 <__data_end>
     710:	70 91 c7 00 	lds	r23, 0x00C7	; 0x8000c7 <__data_end+0x1>
     714:	86 ec       	ldi	r24, 0xC6	; 198
     716:	90 e0       	ldi	r25, 0x00	; 0
     718:	0a d6       	rcall	.+3092   	; 0x132e <_ZN5Rotor12SetFrequencyEi>
	SendInfDisplay();
     71a:	7f df       	rcall	.-258    	; 0x61a <_Z14SendInfDisplayv>
}
     71c:	ff 91       	pop	r31
     71e:	ef 91       	pop	r30
     720:	bf 91       	pop	r27
     722:	af 91       	pop	r26
     724:	9f 91       	pop	r25
     726:	8f 91       	pop	r24
     728:	7f 91       	pop	r23
     72a:	6f 91       	pop	r22
     72c:	5f 91       	pop	r21
     72e:	4f 91       	pop	r20
     730:	3f 91       	pop	r19
     732:	2f 91       	pop	r18
     734:	0f 90       	pop	r0
     736:	0f be       	out	0x3f, r0	; 63
     738:	0f 90       	pop	r0
     73a:	1f 90       	pop	r1
     73c:	18 95       	reti

0000073e <_Z8PMW_initv>:




void PMW_init(void) {
	DDRB |= (1<<PB3);
     73e:	bb 9a       	sbi	0x17, 3	; 23
	PORTB &= ~(1<<PB3);
     740:	c3 98       	cbi	0x18, 3	; 24
	
	TCCR2 |= (1 << COM21) | (1 << WGM21) | (1 << WGM20)| (1 << CS21);
     742:	85 b5       	in	r24, 0x25	; 37
     744:	8a 66       	ori	r24, 0x6A	; 106
     746:	85 bd       	out	0x25, r24	; 37
	TCNT2 = 0x00;
     748:	14 bc       	out	0x24, r1	; 36
	C_PWM = 0;
     74a:	13 bc       	out	0x23, r1	; 35
     74c:	08 95       	ret

0000074e <_Z8ADC_Initv>:


void ADC_Init(void)
{
	ADCSRA |= (1<<ADEN) // Разрешение использования АЦП
	|(1<<ADPS2)|(1<<ADPS1)|(1<<ADPS0);//Делитель 128 = 64 кГц
     74e:	86 b1       	in	r24, 0x06	; 6
     750:	87 68       	ori	r24, 0x87	; 135
     752:	86 b9       	out	0x06, r24	; 6
	ADMUX |= (1<<REFS0)|(1<<MUX0); //Внутренний Источник ОН 2,56в, вход ADC0
     754:	87 b1       	in	r24, 0x07	; 7
     756:	81 64       	ori	r24, 0x41	; 65
     758:	87 b9       	out	0x07, r24	; 7
	ADCSRA |= (1<<ADSC);
     75a:	36 9a       	sbi	0x06, 6	; 6
     75c:	08 95       	ret

0000075e <_Z8ADC_readv>:
}

void ADC_read(){
	if (ADCSRA & (1<<ADSC)){
     75e:	36 99       	sbic	0x06, 6	; 6
     760:	5d c0       	rjmp	.+186    	; 0x81c <_Z8ADC_readv+0xbe>
		
		}else{
		adc_value = ADC;
     762:	84 b1       	in	r24, 0x04	; 4
     764:	95 b1       	in	r25, 0x05	; 5
		adc_value = adc_value / 2;
     766:	a0 e0       	ldi	r26, 0x00	; 0
     768:	b0 e0       	ldi	r27, 0x00	; 0
     76a:	b6 95       	lsr	r27
     76c:	a7 95       	ror	r26
     76e:	97 95       	ror	r25
     770:	87 95       	ror	r24
     772:	80 93 c6 01 	sts	0x01C6, r24	; 0x8001c6 <adc_value>
     776:	90 93 c7 01 	sts	0x01C7, r25	; 0x8001c7 <adc_value+0x1>
     77a:	a0 93 c8 01 	sts	0x01C8, r26	; 0x8001c8 <adc_value+0x2>
     77e:	b0 93 c9 01 	sts	0x01C9, r27	; 0x8001c9 <adc_value+0x3>
		adc_summ=adc_summ+adc_value;
     782:	40 91 c2 01 	lds	r20, 0x01C2	; 0x8001c2 <adc_summ>
     786:	50 91 c3 01 	lds	r21, 0x01C3	; 0x8001c3 <adc_summ+0x1>
     78a:	60 91 c4 01 	lds	r22, 0x01C4	; 0x8001c4 <adc_summ+0x2>
     78e:	70 91 c5 01 	lds	r23, 0x01C5	; 0x8001c5 <adc_summ+0x3>
     792:	84 0f       	add	r24, r20
     794:	95 1f       	adc	r25, r21
     796:	a6 1f       	adc	r26, r22
     798:	b7 1f       	adc	r27, r23
     79a:	80 93 c2 01 	sts	0x01C2, r24	; 0x8001c2 <adc_summ>
     79e:	90 93 c3 01 	sts	0x01C3, r25	; 0x8001c3 <adc_summ+0x1>
     7a2:	a0 93 c4 01 	sts	0x01C4, r26	; 0x8001c4 <adc_summ+0x2>
     7a6:	b0 93 c5 01 	sts	0x01C5, r27	; 0x8001c5 <adc_summ+0x3>
		adc_count++;
     7aa:	40 91 be 01 	lds	r20, 0x01BE	; 0x8001be <adc_count>
     7ae:	50 91 bf 01 	lds	r21, 0x01BF	; 0x8001bf <adc_count+0x1>
     7b2:	60 91 c0 01 	lds	r22, 0x01C0	; 0x8001c0 <adc_count+0x2>
     7b6:	70 91 c1 01 	lds	r23, 0x01C1	; 0x8001c1 <adc_count+0x3>
     7ba:	4f 5f       	subi	r20, 0xFF	; 255
     7bc:	5f 4f       	sbci	r21, 0xFF	; 255
     7be:	6f 4f       	sbci	r22, 0xFF	; 255
     7c0:	7f 4f       	sbci	r23, 0xFF	; 255
     7c2:	40 93 be 01 	sts	0x01BE, r20	; 0x8001be <adc_count>
     7c6:	50 93 bf 01 	sts	0x01BF, r21	; 0x8001bf <adc_count+0x1>
     7ca:	60 93 c0 01 	sts	0x01C0, r22	; 0x8001c0 <adc_count+0x2>
     7ce:	70 93 c1 01 	sts	0x01C1, r23	; 0x8001c1 <adc_count+0x3>
		if (adc_count==250){
     7d2:	4a 3f       	cpi	r20, 0xFA	; 250
     7d4:	51 05       	cpc	r21, r1
     7d6:	61 05       	cpc	r22, r1
     7d8:	71 05       	cpc	r23, r1
     7da:	f9 f4       	brne	.+62     	; 0x81a <_Z8ADC_readv+0xbc>
			adc_avarage = adc_summ/300;
     7dc:	bc 01       	movw	r22, r24
     7de:	cd 01       	movw	r24, r26
     7e0:	2c e2       	ldi	r18, 0x2C	; 44
     7e2:	31 e0       	ldi	r19, 0x01	; 1
     7e4:	40 e0       	ldi	r20, 0x00	; 0
     7e6:	50 e0       	ldi	r21, 0x00	; 0
     7e8:	05 da       	rcall	.-3062   	; 0xfffffbf4 <__eeprom_end+0xff7efbf4>
     7ea:	20 93 ba 01 	sts	0x01BA, r18	; 0x8001ba <adc_avarage>
     7ee:	30 93 bb 01 	sts	0x01BB, r19	; 0x8001bb <adc_avarage+0x1>
     7f2:	40 93 bc 01 	sts	0x01BC, r20	; 0x8001bc <adc_avarage+0x2>
     7f6:	50 93 bd 01 	sts	0x01BD, r21	; 0x8001bd <adc_avarage+0x3>
			adc_count=0;
     7fa:	10 92 be 01 	sts	0x01BE, r1	; 0x8001be <adc_count>
     7fe:	10 92 bf 01 	sts	0x01BF, r1	; 0x8001bf <adc_count+0x1>
     802:	10 92 c0 01 	sts	0x01C0, r1	; 0x8001c0 <adc_count+0x2>
     806:	10 92 c1 01 	sts	0x01C1, r1	; 0x8001c1 <adc_count+0x3>
			adc_summ=0;
     80a:	10 92 c2 01 	sts	0x01C2, r1	; 0x8001c2 <adc_summ>
     80e:	10 92 c3 01 	sts	0x01C3, r1	; 0x8001c3 <adc_summ+0x1>
     812:	10 92 c4 01 	sts	0x01C4, r1	; 0x8001c4 <adc_summ+0x2>
     816:	10 92 c5 01 	sts	0x01C5, r1	; 0x8001c5 <adc_summ+0x3>
		}
		ADCSRA |= (1<<ADSC);
     81a:	36 9a       	sbi	0x06, 6	; 6
     81c:	08 95       	ret

0000081e <_Z4Initv>:
}

void Init(){
	
	
	Protect.Init('C', 0);
     81e:	40 e0       	ldi	r20, 0x00	; 0
     820:	50 e0       	ldi	r21, 0x00	; 0
     822:	63 e4       	ldi	r22, 0x43	; 67
     824:	85 eb       	ldi	r24, 0xB5	; 181
     826:	91 e0       	ldi	r25, 0x01	; 1
     828:	cf dc       	rcall	.-1634   	; 0x1c8 <_ZN5Input4InitEci>
	
	
	ButtonStop.Init('D',0);
     82a:	40 e0       	ldi	r20, 0x00	; 0
     82c:	50 e0       	ldi	r21, 0x00	; 0
     82e:	64 e4       	ldi	r22, 0x44	; 68
     830:	8a ea       	ldi	r24, 0xAA	; 170
     832:	91 e0       	ldi	r25, 0x01	; 1
     834:	2d dc       	rcall	.-1958   	; 0x90 <_ZN6Button4InitEci>
	ButtonStart.Init('D',1);
     836:	41 e0       	ldi	r20, 0x01	; 1
     838:	50 e0       	ldi	r21, 0x00	; 0
     83a:	64 e4       	ldi	r22, 0x44	; 68
     83c:	8f e9       	ldi	r24, 0x9F	; 159
     83e:	91 e0       	ldi	r25, 0x01	; 1
     840:	27 dc       	rcall	.-1970   	; 0x90 <_ZN6Button4InitEci>
	ButtonReverse.Init('D',2);
     842:	42 e0       	ldi	r20, 0x02	; 2
     844:	50 e0       	ldi	r21, 0x00	; 0
     846:	64 e4       	ldi	r22, 0x44	; 68
     848:	84 e9       	ldi	r24, 0x94	; 148
     84a:	91 e0       	ldi	r25, 0x01	; 1
     84c:	21 dc       	rcall	.-1982   	; 0x90 <_ZN6Button4InitEci>
	ButtonUp.Init('D',4);
     84e:	44 e0       	ldi	r20, 0x04	; 4
     850:	50 e0       	ldi	r21, 0x00	; 0
     852:	64 e4       	ldi	r22, 0x44	; 68
     854:	89 e8       	ldi	r24, 0x89	; 137
     856:	91 e0       	ldi	r25, 0x01	; 1
     858:	1b dc       	rcall	.-1994   	; 0x90 <_ZN6Button4InitEci>
	ButtonDown.Init('D',3);
     85a:	43 e0       	ldi	r20, 0x03	; 3
     85c:	50 e0       	ldi	r21, 0x00	; 0
     85e:	64 e4       	ldi	r22, 0x44	; 68
     860:	8e e7       	ldi	r24, 0x7E	; 126
     862:	91 e0       	ldi	r25, 0x01	; 1
     864:	15 dc       	rcall	.-2006   	; 0x90 <_ZN6Button4InitEci>
	ButtonReset.Init('D',6);
     866:	46 e0       	ldi	r20, 0x06	; 6
     868:	50 e0       	ldi	r21, 0x00	; 0
     86a:	64 e4       	ldi	r22, 0x44	; 68
     86c:	83 e7       	ldi	r24, 0x73	; 115
     86e:	91 e0       	ldi	r25, 0x01	; 1
     870:	0f dc       	rcall	.-2018   	; 0x90 <_ZN6Button4InitEci>
	
	Power.Init('D',7, false);
     872:	20 e0       	ldi	r18, 0x00	; 0
     874:	47 e0       	ldi	r20, 0x07	; 7
     876:	50 e0       	ldi	r21, 0x00	; 0
     878:	64 e4       	ldi	r22, 0x44	; 68
     87a:	8e e6       	ldi	r24, 0x6E	; 110
     87c:	91 e0       	ldi	r25, 0x01	; 1
     87e:	23 d4       	rcall	.+2118   	; 0x10c6 <_ZN6Output4InitEcib>
	
	GreenLed.Init('B',6, true);
     880:	21 e0       	ldi	r18, 0x01	; 1
     882:	46 e0       	ldi	r20, 0x06	; 6
     884:	50 e0       	ldi	r21, 0x00	; 0
     886:	62 e4       	ldi	r22, 0x42	; 66
     888:	89 e6       	ldi	r24, 0x69	; 105
     88a:	91 e0       	ldi	r25, 0x01	; 1
     88c:	1c d4       	rcall	.+2104   	; 0x10c6 <_ZN6Output4InitEcib>
	RedLed.Init('B',7, true);
     88e:	21 e0       	ldi	r18, 0x01	; 1
     890:	47 e0       	ldi	r20, 0x07	; 7
     892:	50 e0       	ldi	r21, 0x00	; 0
     894:	62 e4       	ldi	r22, 0x42	; 66
     896:	84 e6       	ldi	r24, 0x64	; 100
     898:	91 e0       	ldi	r25, 0x01	; 1
     89a:	15 d4       	rcall	.+2090   	; 0x10c6 <_ZN6Output4InitEcib>
	BlueLed.Init('D',5,true);
     89c:	21 e0       	ldi	r18, 0x01	; 1
     89e:	45 e0       	ldi	r20, 0x05	; 5
     8a0:	50 e0       	ldi	r21, 0x00	; 0
     8a2:	64 e4       	ldi	r22, 0x44	; 68
     8a4:	8f e5       	ldi	r24, 0x5F	; 95
     8a6:	91 e0       	ldi	r25, 0x01	; 1
     8a8:	0e d4       	rcall	.+2076   	; 0x10c6 <_ZN6Output4InitEcib>
	
	Rotor.Init();
     8aa:	86 ec       	ldi	r24, 0xC6	; 198
     8ac:	90 e0       	ldi	r25, 0x00	; 0
     8ae:	79 d5       	rcall	.+2802   	; 0x13a2 <_ZN5Rotor4InitEv>
	
	DDRB |= (1<<(PB0));
     8b0:	b8 9a       	sbi	0x17, 0	; 23
	DDRB |= (1<<(PB1));
     8b2:	b9 9a       	sbi	0x17, 1	; 23
	DDRB |= (1<<(PB2));
     8b4:	ba 9a       	sbi	0x17, 2	; 23
	DDRC |= (1<<(PC2));
     8b6:	a2 9a       	sbi	0x14, 2	; 20
	DDRB |= (1<<(PB4));
     8b8:	bc 9a       	sbi	0x17, 4	; 23
	DDRB |= (1<<(PB5));	
     8ba:	bd 9a       	sbi	0x17, 5	; 23
	DDRD |= (1<<(PD7));
     8bc:	8f 9a       	sbi	0x11, 7	; 17
	
	SPI_init();
     8be:	eb dc       	rcall	.-1578   	; 0x296 <_Z8SPI_initv>
	//LED_Display_Init();
	
	initTimer();
     8c0:	06 df       	rcall	.-500    	; 0x6ce <_Z9initTimerv>
	PMW_init();
     8c2:	3d df       	rcall	.-390    	; 0x73e <_Z8PMW_initv>
	ADC_Init();
     8c4:	44 df       	rcall	.-376    	; 0x74e <_Z8ADC_Initv>
	#else
		//round up by default
		__ticks_dc = (uint32_t)(ceil(fabs(__tmp)));
	#endif

	__builtin_avr_delay_cycles(__ticks_dc);
     8c6:	2f ef       	ldi	r18, 0xFF	; 255
     8c8:	80 e7       	ldi	r24, 0x70	; 112
     8ca:	92 e0       	ldi	r25, 0x02	; 2
     8cc:	21 50       	subi	r18, 0x01	; 1
     8ce:	80 40       	sbci	r24, 0x00	; 0
     8d0:	90 40       	sbci	r25, 0x00	; 0
     8d2:	e1 f7       	brne	.-8      	; 0x8cc <_Z4Initv+0xae>
     8d4:	00 c0       	rjmp	.+0      	; 0x8d6 <_Z4Initv+0xb8>
     8d6:	00 00       	nop
	_delay_ms(100);
	Power.On();
     8d8:	8e e6       	ldi	r24, 0x6E	; 110
     8da:	91 e0       	ldi	r25, 0x01	; 1
     8dc:	c6 d4       	rcall	.+2444   	; 0x126a <_ZN6Output2OnEv>
     8de:	08 95       	ret

000008e0 <_Z10ReadInputsv>:
}

void ReadInputs(){
	ButtonStop.Scan();
     8e0:	8a ea       	ldi	r24, 0xAA	; 170
     8e2:	91 e0       	ldi	r25, 0x01	; 1
     8e4:	4b dc       	rcall	.-1898   	; 0x17c <_ZN6Button4ScanEv>
	ButtonStart.Scan();
     8e6:	8f e9       	ldi	r24, 0x9F	; 159
     8e8:	91 e0       	ldi	r25, 0x01	; 1
     8ea:	48 dc       	rcall	.-1904   	; 0x17c <_ZN6Button4ScanEv>
	ButtonReverse.Scan();
     8ec:	84 e9       	ldi	r24, 0x94	; 148
     8ee:	91 e0       	ldi	r25, 0x01	; 1
     8f0:	45 dc       	rcall	.-1910   	; 0x17c <_ZN6Button4ScanEv>
	ButtonUp.Scan();
     8f2:	89 e8       	ldi	r24, 0x89	; 137
     8f4:	91 e0       	ldi	r25, 0x01	; 1
     8f6:	42 dc       	rcall	.-1916   	; 0x17c <_ZN6Button4ScanEv>
	ButtonDown.Scan();
     8f8:	8e e7       	ldi	r24, 0x7E	; 126
     8fa:	91 e0       	ldi	r25, 0x01	; 1
     8fc:	3f dc       	rcall	.-1922   	; 0x17c <_ZN6Button4ScanEv>
	ButtonReset.Scan();
     8fe:	83 e7       	ldi	r24, 0x73	; 115
     900:	91 e0       	ldi	r25, 0x01	; 1
     902:	3c dc       	rcall	.-1928   	; 0x17c <_ZN6Button4ScanEv>
	ADC_read();
     904:	2c df       	rcall	.-424    	; 0x75e <_Z8ADC_readv>
	Rotor.Current = adc_avarage;
     906:	80 91 ba 01 	lds	r24, 0x01BA	; 0x8001ba <adc_avarage>
     90a:	90 91 bb 01 	lds	r25, 0x01BB	; 0x8001bb <adc_avarage+0x1>
     90e:	90 93 f7 00 	sts	0x00F7, r25	; 0x8000f7 <__data_end+0x31>
     912:	80 93 f6 00 	sts	0x00F6, r24	; 0x8000f6 <__data_end+0x30>
     916:	08 95       	ret

00000918 <_Z13StartControllv>:
#ifndef ROTORCONTROLL_H_
#define ROTORCONTROLL_H_


void StartControll(){
	if (ButtonStart.PressRead()&&!Rotor.Started&&!Protect.Read()){
     918:	8f e9       	ldi	r24, 0x9F	; 159
     91a:	91 e0       	ldi	r25, 0x01	; 1
     91c:	f7 db       	rcall	.-2066   	; 0x10c <_ZN6Button9PressReadEv>
     91e:	88 23       	and	r24, r24
     920:	61 f0       	breq	.+24     	; 0x93a <_Z13StartControllv+0x22>
     922:	80 91 e1 00 	lds	r24, 0x00E1	; 0x8000e1 <__data_end+0x1b>
     926:	81 11       	cpse	r24, r1
     928:	08 c0       	rjmp	.+16     	; 0x93a <_Z13StartControllv+0x22>
     92a:	85 eb       	ldi	r24, 0xB5	; 181
     92c:	91 e0       	ldi	r25, 0x01	; 1
     92e:	86 dc       	rcall	.-1780   	; 0x23c <_ZN5Input4ReadEv>
     930:	81 11       	cpse	r24, r1
     932:	03 c0       	rjmp	.+6      	; 0x93a <_Z13StartControllv+0x22>
		Rotor.Starting = true;
     934:	81 e0       	ldi	r24, 0x01	; 1
     936:	80 93 de 00 	sts	0x00DE, r24	; 0x8000de <__data_end+0x18>
     93a:	08 95       	ret

0000093c <_Z12StopControllv>:
	}
}

void StopControll(){
	if (ButtonStop.PressRead()&&!Protect.Read()){
     93c:	8a ea       	ldi	r24, 0xAA	; 170
     93e:	91 e0       	ldi	r25, 0x01	; 1
     940:	e5 db       	rcall	.-2102   	; 0x10c <_ZN6Button9PressReadEv>
     942:	88 23       	and	r24, r24
     944:	41 f0       	breq	.+16     	; 0x956 <_Z12StopControllv+0x1a>
     946:	85 eb       	ldi	r24, 0xB5	; 181
     948:	91 e0       	ldi	r25, 0x01	; 1
     94a:	78 dc       	rcall	.-1808   	; 0x23c <_ZN5Input4ReadEv>
     94c:	81 11       	cpse	r24, r1
     94e:	03 c0       	rjmp	.+6      	; 0x956 <_Z12StopControllv+0x1a>
		Rotor.Stoping = true;
     950:	81 e0       	ldi	r24, 0x01	; 1
     952:	80 93 df 00 	sts	0x00DF, r24	; 0x8000df <__data_end+0x19>
     956:	08 95       	ret

00000958 <_Z15ReverseControllv>:
	}
}

void ReverseControll(){
	if(ButtonReverse.PressRead()){
     958:	84 e9       	ldi	r24, 0x94	; 148
     95a:	91 e0       	ldi	r25, 0x01	; 1
     95c:	d7 db       	rcall	.-2130   	; 0x10c <_ZN6Button9PressReadEv>
     95e:	88 23       	and	r24, r24
     960:	19 f0       	breq	.+6      	; 0x968 <_Z15ReverseControllv+0x10>
		Rotor.Reversing = true;
     962:	81 e0       	ldi	r24, 0x01	; 1
     964:	80 93 e0 00 	sts	0x00E0, r24	; 0x8000e0 <__data_end+0x1a>
     968:	08 95       	ret

0000096a <_Z13SpeedControllv>:

void SpeedControll(){
	
	
	
	if (ButtonUp.getpressed){
     96a:	80 91 92 01 	lds	r24, 0x0192	; 0x800192 <ButtonUp+0x9>
     96e:	90 91 93 01 	lds	r25, 0x0193	; 0x800193 <ButtonUp+0xa>
     972:	89 2b       	or	r24, r25
     974:	d9 f1       	breq	.+118    	; 0x9ec <_Z13SpeedControllv+0x82>
		slip++;
     976:	80 91 b8 01 	lds	r24, 0x01B8	; 0x8001b8 <slip>
     97a:	90 91 b9 01 	lds	r25, 0x01B9	; 0x8001b9 <slip+0x1>
     97e:	01 96       	adiw	r24, 0x01	; 1
		if (slip>=3000){
     980:	88 3b       	cpi	r24, 0xB8	; 184
     982:	2b e0       	ldi	r18, 0x0B	; 11
     984:	92 07       	cpc	r25, r18
     986:	2c f4       	brge	.+10     	; 0x992 <_Z13SpeedControllv+0x28>
void SpeedControll(){
	
	
	
	if (ButtonUp.getpressed){
		slip++;
     988:	90 93 b9 01 	sts	0x01B9, r25	; 0x8001b9 <slip+0x1>
     98c:	80 93 b8 01 	sts	0x01B8, r24	; 0x8001b8 <slip>
     990:	2d c0       	rjmp	.+90     	; 0x9ec <_Z13SpeedControllv+0x82>
		if (slip>=3000){
			slip=3000;
     992:	88 eb       	ldi	r24, 0xB8	; 184
     994:	9b e0       	ldi	r25, 0x0B	; 11
     996:	90 93 b9 01 	sts	0x01B9, r25	; 0x8001b9 <slip+0x1>
     99a:	80 93 b8 01 	sts	0x01B8, r24	; 0x8001b8 <slip>
			if(Mode == ModeNo){Rotor.FrequncyUp(10);}
     99e:	80 91 cd 01 	lds	r24, 0x01CD	; 0x8001cd <Mode>
     9a2:	90 91 ce 01 	lds	r25, 0x01CE	; 0x8001ce <Mode+0x1>
     9a6:	89 2b       	or	r24, r25
     9a8:	29 f4       	brne	.+10     	; 0x9b4 <_Z13SpeedControllv+0x4a>
     9aa:	6a e0       	ldi	r22, 0x0A	; 10
     9ac:	70 e0       	ldi	r23, 0x00	; 0
     9ae:	86 ec       	ldi	r24, 0xC6	; 198
     9b0:	90 e0       	ldi	r25, 0x00	; 0
     9b2:	49 d5       	rcall	.+2706   	; 0x1446 <_ZN5Rotor10FrequncyUpEi>
			if(Mode == ModeSetPMW||Mode == ModeCurrent){Rotor.PMWUp(10);}
     9b4:	80 91 cd 01 	lds	r24, 0x01CD	; 0x8001cd <Mode>
     9b8:	90 91 ce 01 	lds	r25, 0x01CE	; 0x8001ce <Mode+0x1>
     9bc:	02 97       	sbiw	r24, 0x02	; 2
     9be:	02 97       	sbiw	r24, 0x02	; 2
     9c0:	28 f4       	brcc	.+10     	; 0x9cc <_Z13SpeedControllv+0x62>
     9c2:	6a e0       	ldi	r22, 0x0A	; 10
     9c4:	70 e0       	ldi	r23, 0x00	; 0
     9c6:	86 ec       	ldi	r24, 0xC6	; 198
     9c8:	90 e0       	ldi	r25, 0x00	; 0
     9ca:	b0 d5       	rcall	.+2912   	; 0x152c <_ZN5Rotor5PMWUpEi>
			ModeFeq = true;
     9cc:	81 e0       	ldi	r24, 0x01	; 1
     9ce:	80 93 cc 01 	sts	0x01CC, r24	; 0x8001cc <ModeFeq>
			ModeFeqCount = 0;
     9d2:	10 92 cb 01 	sts	0x01CB, r1	; 0x8001cb <ModeFeqCount+0x1>
     9d6:	10 92 ca 01 	sts	0x01CA, r1	; 0x8001ca <ModeFeqCount>
     9da:	8f ef       	ldi	r24, 0xFF	; 255
     9dc:	91 ee       	ldi	r25, 0xE1	; 225
     9de:	24 e0       	ldi	r18, 0x04	; 4
     9e0:	81 50       	subi	r24, 0x01	; 1
     9e2:	90 40       	sbci	r25, 0x00	; 0
     9e4:	20 40       	sbci	r18, 0x00	; 0
     9e6:	e1 f7       	brne	.-8      	; 0x9e0 <_Z13SpeedControllv+0x76>
     9e8:	00 c0       	rjmp	.+0      	; 0x9ea <_Z13SpeedControllv+0x80>
     9ea:	00 00       	nop
			_delay_ms(200);
		}
	}
	
	if(ButtonUp.PressRead()){
     9ec:	89 e8       	ldi	r24, 0x89	; 137
     9ee:	91 e0       	ldi	r25, 0x01	; 1
     9f0:	8d db       	rcall	.-2278   	; 0x10c <_ZN6Button9PressReadEv>
     9f2:	88 23       	and	r24, r24
     9f4:	21 f1       	breq	.+72     	; 0xa3e <_Z13SpeedControllv+0xd4>
		slip=1;
     9f6:	81 e0       	ldi	r24, 0x01	; 1
     9f8:	90 e0       	ldi	r25, 0x00	; 0
     9fa:	90 93 b9 01 	sts	0x01B9, r25	; 0x8001b9 <slip+0x1>
     9fe:	80 93 b8 01 	sts	0x01B8, r24	; 0x8001b8 <slip>
		if(Mode == ModeNo) {Rotor.FrequncyUp(1);}
     a02:	80 91 cd 01 	lds	r24, 0x01CD	; 0x8001cd <Mode>
     a06:	90 91 ce 01 	lds	r25, 0x01CE	; 0x8001ce <Mode+0x1>
     a0a:	89 2b       	or	r24, r25
     a0c:	29 f4       	brne	.+10     	; 0xa18 <_Z13SpeedControllv+0xae>
     a0e:	61 e0       	ldi	r22, 0x01	; 1
     a10:	70 e0       	ldi	r23, 0x00	; 0
     a12:	86 ec       	ldi	r24, 0xC6	; 198
     a14:	90 e0       	ldi	r25, 0x00	; 0
     a16:	17 d5       	rcall	.+2606   	; 0x1446 <_ZN5Rotor10FrequncyUpEi>
		if(Mode == ModeSetPMW||Mode == ModeCurrent){Rotor.PMWUp(1);}
     a18:	80 91 cd 01 	lds	r24, 0x01CD	; 0x8001cd <Mode>
     a1c:	90 91 ce 01 	lds	r25, 0x01CE	; 0x8001ce <Mode+0x1>
     a20:	02 97       	sbiw	r24, 0x02	; 2
     a22:	02 97       	sbiw	r24, 0x02	; 2
     a24:	28 f4       	brcc	.+10     	; 0xa30 <_Z13SpeedControllv+0xc6>
     a26:	61 e0       	ldi	r22, 0x01	; 1
     a28:	70 e0       	ldi	r23, 0x00	; 0
     a2a:	86 ec       	ldi	r24, 0xC6	; 198
     a2c:	90 e0       	ldi	r25, 0x00	; 0
     a2e:	7e d5       	rcall	.+2812   	; 0x152c <_ZN5Rotor5PMWUpEi>
		ModeFeq = true;
     a30:	81 e0       	ldi	r24, 0x01	; 1
     a32:	80 93 cc 01 	sts	0x01CC, r24	; 0x8001cc <ModeFeq>
		ModeFeqCount = 0;
     a36:	10 92 cb 01 	sts	0x01CB, r1	; 0x8001cb <ModeFeqCount+0x1>
     a3a:	10 92 ca 01 	sts	0x01CA, r1	; 0x8001ca <ModeFeqCount>
	}
	
	if (ButtonDown.getpressed){
     a3e:	80 91 87 01 	lds	r24, 0x0187	; 0x800187 <ButtonDown+0x9>
     a42:	90 91 88 01 	lds	r25, 0x0188	; 0x800188 <ButtonDown+0xa>
     a46:	89 2b       	or	r24, r25
     a48:	d1 f1       	breq	.+116    	; 0xabe <_Z13SpeedControllv+0x154>
		slip++;
     a4a:	80 91 b8 01 	lds	r24, 0x01B8	; 0x8001b8 <slip>
     a4e:	90 91 b9 01 	lds	r25, 0x01B9	; 0x8001b9 <slip+0x1>
     a52:	01 96       	adiw	r24, 0x01	; 1
		if (slip>=3000){
     a54:	88 3b       	cpi	r24, 0xB8	; 184
     a56:	2b e0       	ldi	r18, 0x0B	; 11
     a58:	92 07       	cpc	r25, r18
     a5a:	2c f4       	brge	.+10     	; 0xa66 <_Z13SpeedControllv+0xfc>
		ModeFeq = true;
		ModeFeqCount = 0;
	}
	
	if (ButtonDown.getpressed){
		slip++;
     a5c:	90 93 b9 01 	sts	0x01B9, r25	; 0x8001b9 <slip+0x1>
     a60:	80 93 b8 01 	sts	0x01B8, r24	; 0x8001b8 <slip>
     a64:	2c c0       	rjmp	.+88     	; 0xabe <_Z13SpeedControllv+0x154>
		if (slip>=3000){
			slip=3000;
     a66:	88 eb       	ldi	r24, 0xB8	; 184
     a68:	9b e0       	ldi	r25, 0x0B	; 11
     a6a:	90 93 b9 01 	sts	0x01B9, r25	; 0x8001b9 <slip+0x1>
     a6e:	80 93 b8 01 	sts	0x01B8, r24	; 0x8001b8 <slip>
			if(Mode == ModeNo){Rotor.FrequencyDown(10);}
     a72:	80 91 cd 01 	lds	r24, 0x01CD	; 0x8001cd <Mode>
     a76:	90 91 ce 01 	lds	r25, 0x01CE	; 0x8001ce <Mode+0x1>
     a7a:	89 2b       	or	r24, r25
     a7c:	29 f4       	brne	.+10     	; 0xa88 <_Z13SpeedControllv+0x11e>
     a7e:	6a e0       	ldi	r22, 0x0A	; 10
     a80:	70 e0       	ldi	r23, 0x00	; 0
     a82:	86 ec       	ldi	r24, 0xC6	; 198
     a84:	90 e0       	ldi	r25, 0x00	; 0
     a86:	17 d5       	rcall	.+2606   	; 0x14b6 <_ZN5Rotor13FrequencyDownEi>
			if(Mode == ModeSetPMW){Rotor.PMWDown(10);}
     a88:	80 91 cd 01 	lds	r24, 0x01CD	; 0x8001cd <Mode>
     a8c:	90 91 ce 01 	lds	r25, 0x01CE	; 0x8001ce <Mode+0x1>
     a90:	02 97       	sbiw	r24, 0x02	; 2
     a92:	29 f4       	brne	.+10     	; 0xa9e <_Z13SpeedControllv+0x134>
     a94:	6a e0       	ldi	r22, 0x0A	; 10
     a96:	70 e0       	ldi	r23, 0x00	; 0
     a98:	86 ec       	ldi	r24, 0xC6	; 198
     a9a:	90 e0       	ldi	r25, 0x00	; 0
     a9c:	71 d5       	rcall	.+2786   	; 0x1580 <_ZN5Rotor7PMWDownEi>
			ModeFeq = true;
     a9e:	81 e0       	ldi	r24, 0x01	; 1
     aa0:	80 93 cc 01 	sts	0x01CC, r24	; 0x8001cc <ModeFeq>
			ModeFeqCount = 0;
     aa4:	10 92 cb 01 	sts	0x01CB, r1	; 0x8001cb <ModeFeqCount+0x1>
     aa8:	10 92 ca 01 	sts	0x01CA, r1	; 0x8001ca <ModeFeqCount>
     aac:	8f ef       	ldi	r24, 0xFF	; 255
     aae:	91 ee       	ldi	r25, 0xE1	; 225
     ab0:	24 e0       	ldi	r18, 0x04	; 4
     ab2:	81 50       	subi	r24, 0x01	; 1
     ab4:	90 40       	sbci	r25, 0x00	; 0
     ab6:	20 40       	sbci	r18, 0x00	; 0
     ab8:	e1 f7       	brne	.-8      	; 0xab2 <_Z13SpeedControllv+0x148>
     aba:	00 c0       	rjmp	.+0      	; 0xabc <_Z13SpeedControllv+0x152>
     abc:	00 00       	nop
			_delay_ms(200);
		}
	}	
	
	if(ButtonDown.PressRead()){
     abe:	8e e7       	ldi	r24, 0x7E	; 126
     ac0:	91 e0       	ldi	r25, 0x01	; 1
     ac2:	24 db       	rcall	.-2488   	; 0x10c <_ZN6Button9PressReadEv>
     ac4:	88 23       	and	r24, r24
     ac6:	19 f1       	breq	.+70     	; 0xb0e <_Z13SpeedControllv+0x1a4>
		slip=1;
     ac8:	81 e0       	ldi	r24, 0x01	; 1
     aca:	90 e0       	ldi	r25, 0x00	; 0
     acc:	90 93 b9 01 	sts	0x01B9, r25	; 0x8001b9 <slip+0x1>
     ad0:	80 93 b8 01 	sts	0x01B8, r24	; 0x8001b8 <slip>
		if(Mode == ModeNo){Rotor.FrequencyDown(1);}
     ad4:	80 91 cd 01 	lds	r24, 0x01CD	; 0x8001cd <Mode>
     ad8:	90 91 ce 01 	lds	r25, 0x01CE	; 0x8001ce <Mode+0x1>
     adc:	89 2b       	or	r24, r25
     ade:	29 f4       	brne	.+10     	; 0xaea <_Z13SpeedControllv+0x180>
     ae0:	61 e0       	ldi	r22, 0x01	; 1
     ae2:	70 e0       	ldi	r23, 0x00	; 0
     ae4:	86 ec       	ldi	r24, 0xC6	; 198
     ae6:	90 e0       	ldi	r25, 0x00	; 0
     ae8:	e6 d4       	rcall	.+2508   	; 0x14b6 <_ZN5Rotor13FrequencyDownEi>
		if(Mode == ModeSetPMW){Rotor.PMWDown(1);}
     aea:	80 91 cd 01 	lds	r24, 0x01CD	; 0x8001cd <Mode>
     aee:	90 91 ce 01 	lds	r25, 0x01CE	; 0x8001ce <Mode+0x1>
     af2:	02 97       	sbiw	r24, 0x02	; 2
     af4:	29 f4       	brne	.+10     	; 0xb00 <_Z13SpeedControllv+0x196>
     af6:	61 e0       	ldi	r22, 0x01	; 1
     af8:	70 e0       	ldi	r23, 0x00	; 0
     afa:	86 ec       	ldi	r24, 0xC6	; 198
     afc:	90 e0       	ldi	r25, 0x00	; 0
     afe:	40 d5       	rcall	.+2688   	; 0x1580 <_ZN5Rotor7PMWDownEi>
		ModeFeq = true;		
     b00:	81 e0       	ldi	r24, 0x01	; 1
     b02:	80 93 cc 01 	sts	0x01CC, r24	; 0x8001cc <ModeFeq>
		ModeFeqCount = 0;
     b06:	10 92 cb 01 	sts	0x01CB, r1	; 0x8001cb <ModeFeqCount+0x1>
     b0a:	10 92 ca 01 	sts	0x01CA, r1	; 0x8001ca <ModeFeqCount>
     b0e:	08 95       	ret

00000b10 <_Z7LedModev>:

int slipTimes = 1000;


void LedMode(){
		BlueLed.On();
     b10:	8f e5       	ldi	r24, 0x5F	; 95
     b12:	91 e0       	ldi	r25, 0x01	; 1
     b14:	aa d3       	rcall	.+1876   	; 0x126a <_ZN6Output2OnEv>
		RedLed.Off();
     b16:	84 e6       	ldi	r24, 0x64	; 100
     b18:	91 e0       	ldi	r25, 0x01	; 1
     b1a:	46 d3       	rcall	.+1676   	; 0x11a8 <_ZN6Output3OffEv>
		GreenLed.Off();	
     b1c:	89 e6       	ldi	r24, 0x69	; 105
     b1e:	91 e0       	ldi	r25, 0x01	; 1
     b20:	43 d3       	rcall	.+1670   	; 0x11a8 <_ZN6Output3OffEv>
     b22:	08 95       	ret

00000b24 <_Z7IfSetUpv>:
}

void IfSetUp(){
	ButtonUp.Scan();
     b24:	89 e8       	ldi	r24, 0x89	; 137
     b26:	91 e0       	ldi	r25, 0x01	; 1
     b28:	29 db       	rcall	.-2478   	; 0x17c <_ZN6Button4ScanEv>
	if(ButtonUp.getpressed){
     b2a:	80 91 92 01 	lds	r24, 0x0192	; 0x800192 <ButtonUp+0x9>
     b2e:	90 91 93 01 	lds	r25, 0x0193	; 0x800193 <ButtonUp+0xa>
     b32:	89 2b       	or	r24, r25
     b34:	d1 f1       	breq	.+116    	; 0xbaa <_Z7IfSetUpv+0x86>
		slip++;
     b36:	80 91 b8 01 	lds	r24, 0x01B8	; 0x8001b8 <slip>
     b3a:	90 91 b9 01 	lds	r25, 0x01B9	; 0x8001b9 <slip+0x1>
     b3e:	01 96       	adiw	r24, 0x01	; 1
     b40:	90 93 b9 01 	sts	0x01B9, r25	; 0x8001b9 <slip+0x1>
     b44:	80 93 b8 01 	sts	0x01B8, r24	; 0x8001b8 <slip>
		if(slip>=slipTimes){
     b48:	20 91 60 00 	lds	r18, 0x0060	; 0x800060 <__data_start>
     b4c:	30 91 61 00 	lds	r19, 0x0061	; 0x800061 <__data_start+0x1>
     b50:	82 17       	cp	r24, r18
     b52:	93 07       	cpc	r25, r19
     b54:	54 f1       	brlt	.+84     	; 0xbaa <_Z7IfSetUpv+0x86>
			slip = slipTimes;
     b56:	30 93 b9 01 	sts	0x01B9, r19	; 0x8001b9 <slip+0x1>
     b5a:	20 93 b8 01 	sts	0x01B8, r18	; 0x8001b8 <slip>
			switch(Mode){
     b5e:	80 91 cd 01 	lds	r24, 0x01CD	; 0x8001cd <Mode>
     b62:	90 91 ce 01 	lds	r25, 0x01CE	; 0x8001ce <Mode+0x1>
     b66:	8b 30       	cpi	r24, 0x0B	; 11
     b68:	91 05       	cpc	r25, r1
     b6a:	59 f0       	breq	.+22     	; 0xb82 <_Z7IfSetUpv+0x5e>
     b6c:	8c 30       	cpi	r24, 0x0C	; 12
     b6e:	91 05       	cpc	r25, r1
     b70:	71 f0       	breq	.+28     	; 0xb8e <_Z7IfSetUpv+0x6a>
     b72:	0a 97       	sbiw	r24, 0x0a	; 10
     b74:	89 f4       	brne	.+34     	; 0xb98 <_Z7IfSetUpv+0x74>
				case ModeSetStartTime:Rotor.StartimeUp(1000);break;
     b76:	68 ee       	ldi	r22, 0xE8	; 232
     b78:	73 e0       	ldi	r23, 0x03	; 3
     b7a:	86 ec       	ldi	r24, 0xC6	; 198
     b7c:	90 e0       	ldi	r25, 0x00	; 0
     b7e:	29 d5       	rcall	.+2642   	; 0x15d2 <_ZN5Rotor10StartimeUpEi>
     b80:	0b c0       	rjmp	.+22     	; 0xb98 <_Z7IfSetUpv+0x74>
				case ModeSetStopTime:Rotor.StoptimeUp(1000);break;
     b82:	68 ee       	ldi	r22, 0xE8	; 232
     b84:	73 e0       	ldi	r23, 0x03	; 3
     b86:	86 ec       	ldi	r24, 0xC6	; 198
     b88:	90 e0       	ldi	r25, 0x00	; 0
     b8a:	66 d5       	rcall	.+2764   	; 0x1658 <_ZN5Rotor10StoptimeUpEi>
     b8c:	05 c0       	rjmp	.+10     	; 0xb98 <_Z7IfSetUpv+0x74>
				case ModeSetWorkCarrent:Rotor.WorkCurrentUp(10);break;
     b8e:	6a e0       	ldi	r22, 0x0A	; 10
     b90:	70 e0       	ldi	r23, 0x00	; 0
     b92:	86 ec       	ldi	r24, 0xC6	; 198
     b94:	90 e0       	ldi	r25, 0x00	; 0
     b96:	a3 d5       	rcall	.+2886   	; 0x16de <_ZN5Rotor13WorkCurrentUpEi>
     b98:	2f ef       	ldi	r18, 0xFF	; 255
     b9a:	80 e7       	ldi	r24, 0x70	; 112
     b9c:	92 e0       	ldi	r25, 0x02	; 2
     b9e:	21 50       	subi	r18, 0x01	; 1
     ba0:	80 40       	sbci	r24, 0x00	; 0
     ba2:	90 40       	sbci	r25, 0x00	; 0
     ba4:	e1 f7       	brne	.-8      	; 0xb9e <_Z7IfSetUpv+0x7a>
     ba6:	00 c0       	rjmp	.+0      	; 0xba8 <_Z7IfSetUpv+0x84>
     ba8:	00 00       	nop
			}
			_delay_ms(100);
		}
	}
	if(ButtonUp.PressRead()){
     baa:	89 e8       	ldi	r24, 0x89	; 137
     bac:	91 e0       	ldi	r25, 0x01	; 1
     bae:	ae da       	rcall	.-2724   	; 0x10c <_ZN6Button9PressReadEv>
     bb0:	88 23       	and	r24, r24
     bb2:	69 f1       	breq	.+90     	; 0xc0e <_Z7IfSetUpv+0xea>
		slip = 0;
     bb4:	10 92 b9 01 	sts	0x01B9, r1	; 0x8001b9 <slip+0x1>
     bb8:	10 92 b8 01 	sts	0x01B8, r1	; 0x8001b8 <slip>
		switch(Mode){
     bbc:	80 91 cd 01 	lds	r24, 0x01CD	; 0x8001cd <Mode>
     bc0:	90 91 ce 01 	lds	r25, 0x01CE	; 0x8001ce <Mode+0x1>
     bc4:	8b 30       	cpi	r24, 0x0B	; 11
     bc6:	91 05       	cpc	r25, r1
     bc8:	59 f0       	breq	.+22     	; 0xbe0 <_Z7IfSetUpv+0xbc>
     bca:	8c 30       	cpi	r24, 0x0C	; 12
     bcc:	91 05       	cpc	r25, r1
     bce:	71 f0       	breq	.+28     	; 0xbec <_Z7IfSetUpv+0xc8>
     bd0:	0a 97       	sbiw	r24, 0x0a	; 10
     bd2:	89 f4       	brne	.+34     	; 0xbf6 <_Z7IfSetUpv+0xd2>
			case ModeSetStartTime:Rotor.StartimeUp(100);break;
     bd4:	64 e6       	ldi	r22, 0x64	; 100
     bd6:	70 e0       	ldi	r23, 0x00	; 0
     bd8:	86 ec       	ldi	r24, 0xC6	; 198
     bda:	90 e0       	ldi	r25, 0x00	; 0
     bdc:	fa d4       	rcall	.+2548   	; 0x15d2 <_ZN5Rotor10StartimeUpEi>
     bde:	0b c0       	rjmp	.+22     	; 0xbf6 <_Z7IfSetUpv+0xd2>
			case ModeSetStopTime:Rotor.StoptimeUp(100);break;
     be0:	64 e6       	ldi	r22, 0x64	; 100
     be2:	70 e0       	ldi	r23, 0x00	; 0
     be4:	86 ec       	ldi	r24, 0xC6	; 198
     be6:	90 e0       	ldi	r25, 0x00	; 0
     be8:	37 d5       	rcall	.+2670   	; 0x1658 <_ZN5Rotor10StoptimeUpEi>
     bea:	05 c0       	rjmp	.+10     	; 0xbf6 <_Z7IfSetUpv+0xd2>
			case ModeSetWorkCarrent:Rotor.WorkCurrentUp(1);break;
     bec:	61 e0       	ldi	r22, 0x01	; 1
     bee:	70 e0       	ldi	r23, 0x00	; 0
     bf0:	86 ec       	ldi	r24, 0xC6	; 198
     bf2:	90 e0       	ldi	r25, 0x00	; 0
     bf4:	74 d5       	rcall	.+2792   	; 0x16de <_ZN5Rotor13WorkCurrentUpEi>
		}
		BlueLed.Off();
     bf6:	8f e5       	ldi	r24, 0x5F	; 95
     bf8:	91 e0       	ldi	r25, 0x01	; 1
     bfa:	d6 d2       	rcall	.+1452   	; 0x11a8 <_ZN6Output3OffEv>
     bfc:	2f ef       	ldi	r18, 0xFF	; 255
     bfe:	80 e7       	ldi	r24, 0x70	; 112
     c00:	92 e0       	ldi	r25, 0x02	; 2
     c02:	21 50       	subi	r18, 0x01	; 1
     c04:	80 40       	sbci	r24, 0x00	; 0
     c06:	90 40       	sbci	r25, 0x00	; 0
     c08:	e1 f7       	brne	.-8      	; 0xc02 <_Z7IfSetUpv+0xde>
     c0a:	00 c0       	rjmp	.+0      	; 0xc0c <_Z7IfSetUpv+0xe8>
     c0c:	00 00       	nop
     c0e:	08 95       	ret

00000c10 <_Z9IfSetDownv>:
		_delay_ms(100);
	}
}

void IfSetDown(){
	ButtonDown.Scan();
     c10:	8e e7       	ldi	r24, 0x7E	; 126
     c12:	91 e0       	ldi	r25, 0x01	; 1
     c14:	b3 da       	rcall	.-2714   	; 0x17c <_ZN6Button4ScanEv>
	if(ButtonDown.getpressed){
     c16:	80 91 87 01 	lds	r24, 0x0187	; 0x800187 <ButtonDown+0x9>
     c1a:	90 91 88 01 	lds	r25, 0x0188	; 0x800188 <ButtonDown+0xa>
     c1e:	89 2b       	or	r24, r25
     c20:	d1 f1       	breq	.+116    	; 0xc96 <_Z9IfSetDownv+0x86>
		slip++;
     c22:	80 91 b8 01 	lds	r24, 0x01B8	; 0x8001b8 <slip>
     c26:	90 91 b9 01 	lds	r25, 0x01B9	; 0x8001b9 <slip+0x1>
     c2a:	01 96       	adiw	r24, 0x01	; 1
     c2c:	90 93 b9 01 	sts	0x01B9, r25	; 0x8001b9 <slip+0x1>
     c30:	80 93 b8 01 	sts	0x01B8, r24	; 0x8001b8 <slip>
		if(slip>=slipTimes){
     c34:	20 91 60 00 	lds	r18, 0x0060	; 0x800060 <__data_start>
     c38:	30 91 61 00 	lds	r19, 0x0061	; 0x800061 <__data_start+0x1>
     c3c:	82 17       	cp	r24, r18
     c3e:	93 07       	cpc	r25, r19
     c40:	54 f1       	brlt	.+84     	; 0xc96 <_Z9IfSetDownv+0x86>
			slip = slipTimes;
     c42:	30 93 b9 01 	sts	0x01B9, r19	; 0x8001b9 <slip+0x1>
     c46:	20 93 b8 01 	sts	0x01B8, r18	; 0x8001b8 <slip>
			switch(Mode){
     c4a:	80 91 cd 01 	lds	r24, 0x01CD	; 0x8001cd <Mode>
     c4e:	90 91 ce 01 	lds	r25, 0x01CE	; 0x8001ce <Mode+0x1>
     c52:	8b 30       	cpi	r24, 0x0B	; 11
     c54:	91 05       	cpc	r25, r1
     c56:	59 f0       	breq	.+22     	; 0xc6e <_Z9IfSetDownv+0x5e>
     c58:	8c 30       	cpi	r24, 0x0C	; 12
     c5a:	91 05       	cpc	r25, r1
     c5c:	71 f0       	breq	.+28     	; 0xc7a <_Z9IfSetDownv+0x6a>
     c5e:	0a 97       	sbiw	r24, 0x0a	; 10
     c60:	89 f4       	brne	.+34     	; 0xc84 <_Z9IfSetDownv+0x74>
				case ModeSetStartTime:Rotor.StartimeDown(1000);break;
     c62:	68 ee       	ldi	r22, 0xE8	; 232
     c64:	73 e0       	ldi	r23, 0x03	; 3
     c66:	86 ec       	ldi	r24, 0xC6	; 198
     c68:	90 e0       	ldi	r25, 0x00	; 0
     c6a:	d6 d4       	rcall	.+2476   	; 0x1618 <_ZN5Rotor12StartimeDownEi>
     c6c:	0b c0       	rjmp	.+22     	; 0xc84 <_Z9IfSetDownv+0x74>
				case ModeSetStopTime:Rotor.StoptimeDown(1000);break;
     c6e:	68 ee       	ldi	r22, 0xE8	; 232
     c70:	73 e0       	ldi	r23, 0x03	; 3
     c72:	86 ec       	ldi	r24, 0xC6	; 198
     c74:	90 e0       	ldi	r25, 0x00	; 0
     c76:	13 d5       	rcall	.+2598   	; 0x169e <_ZN5Rotor12StoptimeDownEi>
     c78:	05 c0       	rjmp	.+10     	; 0xc84 <_Z9IfSetDownv+0x74>
				case ModeSetWorkCarrent:Rotor.WorkCurrentDown(10);break;
     c7a:	6a e0       	ldi	r22, 0x0A	; 10
     c7c:	70 e0       	ldi	r23, 0x00	; 0
     c7e:	86 ec       	ldi	r24, 0xC6	; 198
     c80:	90 e0       	ldi	r25, 0x00	; 0
     c82:	40 d5       	rcall	.+2688   	; 0x1704 <_ZN5Rotor15WorkCurrentDownEi>
     c84:	2f ef       	ldi	r18, 0xFF	; 255
     c86:	80 e7       	ldi	r24, 0x70	; 112
     c88:	92 e0       	ldi	r25, 0x02	; 2
     c8a:	21 50       	subi	r18, 0x01	; 1
     c8c:	80 40       	sbci	r24, 0x00	; 0
     c8e:	90 40       	sbci	r25, 0x00	; 0
     c90:	e1 f7       	brne	.-8      	; 0xc8a <_Z9IfSetDownv+0x7a>
     c92:	00 c0       	rjmp	.+0      	; 0xc94 <_Z9IfSetDownv+0x84>
     c94:	00 00       	nop
			}
			_delay_ms(100);
		}
	}
	if(ButtonDown.PressRead()){
     c96:	8e e7       	ldi	r24, 0x7E	; 126
     c98:	91 e0       	ldi	r25, 0x01	; 1
     c9a:	38 da       	rcall	.-2960   	; 0x10c <_ZN6Button9PressReadEv>
     c9c:	88 23       	and	r24, r24
     c9e:	69 f1       	breq	.+90     	; 0xcfa <_Z9IfSetDownv+0xea>
		slip = 0;
     ca0:	10 92 b9 01 	sts	0x01B9, r1	; 0x8001b9 <slip+0x1>
     ca4:	10 92 b8 01 	sts	0x01B8, r1	; 0x8001b8 <slip>
		switch(Mode){
     ca8:	80 91 cd 01 	lds	r24, 0x01CD	; 0x8001cd <Mode>
     cac:	90 91 ce 01 	lds	r25, 0x01CE	; 0x8001ce <Mode+0x1>
     cb0:	8b 30       	cpi	r24, 0x0B	; 11
     cb2:	91 05       	cpc	r25, r1
     cb4:	59 f0       	breq	.+22     	; 0xccc <_Z9IfSetDownv+0xbc>
     cb6:	8c 30       	cpi	r24, 0x0C	; 12
     cb8:	91 05       	cpc	r25, r1
     cba:	71 f0       	breq	.+28     	; 0xcd8 <_Z9IfSetDownv+0xc8>
     cbc:	0a 97       	sbiw	r24, 0x0a	; 10
     cbe:	89 f4       	brne	.+34     	; 0xce2 <_Z9IfSetDownv+0xd2>
			case ModeSetStartTime:Rotor.StartimeDown(100);break;
     cc0:	64 e6       	ldi	r22, 0x64	; 100
     cc2:	70 e0       	ldi	r23, 0x00	; 0
     cc4:	86 ec       	ldi	r24, 0xC6	; 198
     cc6:	90 e0       	ldi	r25, 0x00	; 0
     cc8:	a7 d4       	rcall	.+2382   	; 0x1618 <_ZN5Rotor12StartimeDownEi>
     cca:	0b c0       	rjmp	.+22     	; 0xce2 <_Z9IfSetDownv+0xd2>
			case ModeSetStopTime:Rotor.StoptimeDown(100);break;
     ccc:	64 e6       	ldi	r22, 0x64	; 100
     cce:	70 e0       	ldi	r23, 0x00	; 0
     cd0:	86 ec       	ldi	r24, 0xC6	; 198
     cd2:	90 e0       	ldi	r25, 0x00	; 0
     cd4:	e4 d4       	rcall	.+2504   	; 0x169e <_ZN5Rotor12StoptimeDownEi>
     cd6:	05 c0       	rjmp	.+10     	; 0xce2 <_Z9IfSetDownv+0xd2>
			case ModeSetWorkCarrent:Rotor.WorkCurrentDown(1);break;
     cd8:	61 e0       	ldi	r22, 0x01	; 1
     cda:	70 e0       	ldi	r23, 0x00	; 0
     cdc:	86 ec       	ldi	r24, 0xC6	; 198
     cde:	90 e0       	ldi	r25, 0x00	; 0
     ce0:	11 d5       	rcall	.+2594   	; 0x1704 <_ZN5Rotor15WorkCurrentDownEi>
		}
		BlueLed.Off();
     ce2:	8f e5       	ldi	r24, 0x5F	; 95
     ce4:	91 e0       	ldi	r25, 0x01	; 1
     ce6:	60 d2       	rcall	.+1216   	; 0x11a8 <_ZN6Output3OffEv>
     ce8:	2f ef       	ldi	r18, 0xFF	; 255
     cea:	80 e7       	ldi	r24, 0x70	; 112
     cec:	92 e0       	ldi	r25, 0x02	; 2
     cee:	21 50       	subi	r18, 0x01	; 1
     cf0:	80 40       	sbci	r24, 0x00	; 0
     cf2:	90 40       	sbci	r25, 0x00	; 0
     cf4:	e1 f7       	brne	.-8      	; 0xcee <_Z9IfSetDownv+0xde>
     cf6:	00 c0       	rjmp	.+0      	; 0xcf8 <_Z9IfSetDownv+0xe8>
     cf8:	00 00       	nop
     cfa:	08 95       	ret

00000cfc <_Z13ModeStartTimev>:
		_delay_ms(100);
	}	
}


void ModeStartTime(){
     cfc:	af 92       	push	r10
     cfe:	bf 92       	push	r11
     d00:	cf 92       	push	r12
     d02:	df 92       	push	r13
     d04:	ef 92       	push	r14
     d06:	ff 92       	push	r15
     d08:	0f 93       	push	r16
     d0a:	1f 93       	push	r17
     d0c:	cf 93       	push	r28
     d0e:	df 93       	push	r29
	
	if (Rotor.RotorStopped()){
     d10:	86 ec       	ldi	r24, 0xC6	; 198
     d12:	90 e0       	ldi	r25, 0x00	; 0
     d14:	08 d5       	rcall	.+2576   	; 0x1726 <_ZN5Rotor12RotorStoppedEv>
     d16:	88 23       	and	r24, r24
     d18:	09 f4       	brne	.+2      	; 0xd1c <_Z13ModeStartTimev+0x20>
     d1a:	48 c0       	rjmp	.+144    	; 0xdac <_Z13ModeStartTimev+0xb0>
		while(((ButtonUp.getpressed||ButtonDown.getpressed)&&ButtonStart.getpressed)||Mode==ModeSetStartTime){
     d1c:	09 e8       	ldi	r16, 0x89	; 137
     d1e:	11 e0       	ldi	r17, 0x01	; 1
     d20:	0f 2e       	mov	r0, r31
     d22:	fe e7       	ldi	r31, 0x7E	; 126
     d24:	af 2e       	mov	r10, r31
     d26:	f1 e0       	ldi	r31, 0x01	; 1
     d28:	bf 2e       	mov	r11, r31
     d2a:	f0 2d       	mov	r31, r0
     d2c:	cf e9       	ldi	r28, 0x9F	; 159
     d2e:	d1 e0       	ldi	r29, 0x01	; 1
			Mode = ModeSetStartTime;
     d30:	0f 2e       	mov	r0, r31
     d32:	fa e0       	ldi	r31, 0x0A	; 10
     d34:	cf 2e       	mov	r12, r31
     d36:	d1 2c       	mov	r13, r1
     d38:	f0 2d       	mov	r31, r0
			LedMode();
			
			IfSetUp();
			IfSetDown();
			
			LED_DisplayTime_ms(Rotor.StaringTime);		
     d3a:	0f 2e       	mov	r0, r31
     d3c:	f6 ec       	ldi	r31, 0xC6	; 198
     d3e:	ef 2e       	mov	r14, r31
     d40:	f0 e0       	ldi	r31, 0x00	; 0
     d42:	ff 2e       	mov	r15, r31
     d44:	f0 2d       	mov	r31, r0


void ModeStartTime(){
	
	if (Rotor.RotorStopped()){
		while(((ButtonUp.getpressed||ButtonDown.getpressed)&&ButtonStart.getpressed)||Mode==ModeSetStartTime){
     d46:	f8 01       	movw	r30, r16
     d48:	81 85       	ldd	r24, Z+9	; 0x09
     d4a:	92 85       	ldd	r25, Z+10	; 0x0a
     d4c:	89 2b       	or	r24, r25
     d4e:	29 f4       	brne	.+10     	; 0xd5a <_Z13ModeStartTimev+0x5e>
     d50:	f5 01       	movw	r30, r10
     d52:	81 85       	ldd	r24, Z+9	; 0x09
     d54:	92 85       	ldd	r25, Z+10	; 0x0a
     d56:	89 2b       	or	r24, r25
     d58:	21 f0       	breq	.+8      	; 0xd62 <_Z13ModeStartTimev+0x66>
     d5a:	89 85       	ldd	r24, Y+9	; 0x09
     d5c:	9a 85       	ldd	r25, Y+10	; 0x0a
     d5e:	89 2b       	or	r24, r25
     d60:	31 f4       	brne	.+12     	; 0xd6e <_Z13ModeStartTimev+0x72>
     d62:	80 91 cd 01 	lds	r24, 0x01CD	; 0x8001cd <Mode>
     d66:	90 91 ce 01 	lds	r25, 0x01CE	; 0x8001ce <Mode+0x1>
     d6a:	0a 97       	sbiw	r24, 0x0a	; 10
     d6c:	f9 f4       	brne	.+62     	; 0xdac <_Z13ModeStartTimev+0xb0>
			Mode = ModeSetStartTime;
     d6e:	d0 92 ce 01 	sts	0x01CE, r13	; 0x8001ce <Mode+0x1>
     d72:	c0 92 cd 01 	sts	0x01CD, r12	; 0x8001cd <Mode>
			LedMode();
     d76:	cc de       	rcall	.-616    	; 0xb10 <_Z7LedModev>
			
			IfSetUp();
     d78:	d5 de       	rcall	.-598    	; 0xb24 <_Z7IfSetUpv>
			IfSetDown();
     d7a:	4a df       	rcall	.-364    	; 0xc10 <_Z9IfSetDownv>
			
			LED_DisplayTime_ms(Rotor.StaringTime);		
     d7c:	f7 01       	movw	r30, r14
     d7e:	66 8d       	ldd	r22, Z+30	; 0x1e
     d80:	77 8d       	ldd	r23, Z+31	; 0x1f
     d82:	80 a1       	ldd	r24, Z+32	; 0x20
     d84:	91 a1       	ldd	r25, Z+33	; 0x21
     d86:	f7 db       	rcall	.-2066   	; 0x576 <_Z18LED_DisplayTime_msl>
	
			ButtonStart.Scan();
     d88:	ce 01       	movw	r24, r28
     d8a:	f8 d9       	rcall	.-3088   	; 0x17c <_ZN6Button4ScanEv>
			ButtonStart.PressRead();
     d8c:	ce 01       	movw	r24, r28
     d8e:	be d9       	rcall	.-3204   	; 0x10c <_ZN6Button9PressReadEv>
			
			if (!ButtonUp.getpressed&&!ButtonStart.getpressed){
     d90:	f8 01       	movw	r30, r16
     d92:	81 85       	ldd	r24, Z+9	; 0x09
     d94:	92 85       	ldd	r25, Z+10	; 0x0a
     d96:	89 2b       	or	r24, r25
     d98:	b1 f6       	brne	.-84     	; 0xd46 <_Z13ModeStartTimev+0x4a>
     d9a:	89 85       	ldd	r24, Y+9	; 0x09
     d9c:	9a 85       	ldd	r25, Y+10	; 0x0a
     d9e:	89 2b       	or	r24, r25
     da0:	91 f6       	brne	.-92     	; 0xd46 <_Z13ModeStartTimev+0x4a>
				Mode = ModeNo;
     da2:	10 92 ce 01 	sts	0x01CE, r1	; 0x8001ce <Mode+0x1>
     da6:	10 92 cd 01 	sts	0x01CD, r1	; 0x8001cd <Mode>
     daa:	cd cf       	rjmp	.-102    	; 0xd46 <_Z13ModeStartTimev+0x4a>
			}
		}
	}
}
     dac:	df 91       	pop	r29
     dae:	cf 91       	pop	r28
     db0:	1f 91       	pop	r17
     db2:	0f 91       	pop	r16
     db4:	ff 90       	pop	r15
     db6:	ef 90       	pop	r14
     db8:	df 90       	pop	r13
     dba:	cf 90       	pop	r12
     dbc:	bf 90       	pop	r11
     dbe:	af 90       	pop	r10
     dc0:	08 95       	ret

00000dc2 <_Z12ModeStopTimev>:

void ModeStopTime(){
     dc2:	af 92       	push	r10
     dc4:	bf 92       	push	r11
     dc6:	cf 92       	push	r12
     dc8:	df 92       	push	r13
     dca:	ef 92       	push	r14
     dcc:	ff 92       	push	r15
     dce:	0f 93       	push	r16
     dd0:	1f 93       	push	r17
     dd2:	cf 93       	push	r28
     dd4:	df 93       	push	r29
	
	if (Rotor.RotorStopped()){
     dd6:	86 ec       	ldi	r24, 0xC6	; 198
     dd8:	90 e0       	ldi	r25, 0x00	; 0
     dda:	a5 d4       	rcall	.+2378   	; 0x1726 <_ZN5Rotor12RotorStoppedEv>
     ddc:	88 23       	and	r24, r24
     dde:	09 f4       	brne	.+2      	; 0xde2 <_Z12ModeStopTimev+0x20>
     de0:	48 c0       	rjmp	.+144    	; 0xe72 <_Z12ModeStopTimev+0xb0>
		while(((ButtonUp.getpressed||ButtonDown.getpressed)&&ButtonStop.getpressed)||Mode==ModeSetStopTime){
     de2:	09 e8       	ldi	r16, 0x89	; 137
     de4:	11 e0       	ldi	r17, 0x01	; 1
     de6:	0f 2e       	mov	r0, r31
     de8:	fe e7       	ldi	r31, 0x7E	; 126
     dea:	af 2e       	mov	r10, r31
     dec:	f1 e0       	ldi	r31, 0x01	; 1
     dee:	bf 2e       	mov	r11, r31
     df0:	f0 2d       	mov	r31, r0
     df2:	ca ea       	ldi	r28, 0xAA	; 170
     df4:	d1 e0       	ldi	r29, 0x01	; 1
			Mode = ModeSetStopTime;
     df6:	0f 2e       	mov	r0, r31
     df8:	fb e0       	ldi	r31, 0x0B	; 11
     dfa:	cf 2e       	mov	r12, r31
     dfc:	d1 2c       	mov	r13, r1
     dfe:	f0 2d       	mov	r31, r0
			LedMode();
			
			IfSetUp();
			IfSetDown();
			
			LED_DisplayTime_ms(Rotor.StopingTime);
     e00:	0f 2e       	mov	r0, r31
     e02:	f6 ec       	ldi	r31, 0xC6	; 198
     e04:	ef 2e       	mov	r14, r31
     e06:	f0 e0       	ldi	r31, 0x00	; 0
     e08:	ff 2e       	mov	r15, r31
     e0a:	f0 2d       	mov	r31, r0
}

void ModeStopTime(){
	
	if (Rotor.RotorStopped()){
		while(((ButtonUp.getpressed||ButtonDown.getpressed)&&ButtonStop.getpressed)||Mode==ModeSetStopTime){
     e0c:	f8 01       	movw	r30, r16
     e0e:	81 85       	ldd	r24, Z+9	; 0x09
     e10:	92 85       	ldd	r25, Z+10	; 0x0a
     e12:	89 2b       	or	r24, r25
     e14:	29 f4       	brne	.+10     	; 0xe20 <_Z12ModeStopTimev+0x5e>
     e16:	f5 01       	movw	r30, r10
     e18:	81 85       	ldd	r24, Z+9	; 0x09
     e1a:	92 85       	ldd	r25, Z+10	; 0x0a
     e1c:	89 2b       	or	r24, r25
     e1e:	21 f0       	breq	.+8      	; 0xe28 <_Z12ModeStopTimev+0x66>
     e20:	89 85       	ldd	r24, Y+9	; 0x09
     e22:	9a 85       	ldd	r25, Y+10	; 0x0a
     e24:	89 2b       	or	r24, r25
     e26:	31 f4       	brne	.+12     	; 0xe34 <_Z12ModeStopTimev+0x72>
     e28:	80 91 cd 01 	lds	r24, 0x01CD	; 0x8001cd <Mode>
     e2c:	90 91 ce 01 	lds	r25, 0x01CE	; 0x8001ce <Mode+0x1>
     e30:	0b 97       	sbiw	r24, 0x0b	; 11
     e32:	f9 f4       	brne	.+62     	; 0xe72 <_Z12ModeStopTimev+0xb0>
			Mode = ModeSetStopTime;
     e34:	d0 92 ce 01 	sts	0x01CE, r13	; 0x8001ce <Mode+0x1>
     e38:	c0 92 cd 01 	sts	0x01CD, r12	; 0x8001cd <Mode>
			LedMode();
     e3c:	69 de       	rcall	.-814    	; 0xb10 <_Z7LedModev>
			
			IfSetUp();
     e3e:	72 de       	rcall	.-796    	; 0xb24 <_Z7IfSetUpv>
			IfSetDown();
     e40:	e7 de       	rcall	.-562    	; 0xc10 <_Z9IfSetDownv>
			
			LED_DisplayTime_ms(Rotor.StopingTime);
     e42:	f7 01       	movw	r30, r14
     e44:	66 a1       	ldd	r22, Z+38	; 0x26
     e46:	77 a1       	ldd	r23, Z+39	; 0x27
     e48:	80 a5       	ldd	r24, Z+40	; 0x28
     e4a:	91 a5       	ldd	r25, Z+41	; 0x29
     e4c:	94 db       	rcall	.-2264   	; 0x576 <_Z18LED_DisplayTime_msl>
			
			ButtonStop.Scan();
     e4e:	ce 01       	movw	r24, r28
     e50:	95 d9       	rcall	.-3286   	; 0x17c <_ZN6Button4ScanEv>
			ButtonStop.PressRead();
     e52:	ce 01       	movw	r24, r28
     e54:	5b d9       	rcall	.-3402   	; 0x10c <_ZN6Button9PressReadEv>
			
			if (!ButtonUp.getpressed&&!ButtonStop.getpressed){
     e56:	f8 01       	movw	r30, r16
     e58:	81 85       	ldd	r24, Z+9	; 0x09
     e5a:	92 85       	ldd	r25, Z+10	; 0x0a
     e5c:	89 2b       	or	r24, r25
     e5e:	b1 f6       	brne	.-84     	; 0xe0c <_Z12ModeStopTimev+0x4a>
     e60:	89 85       	ldd	r24, Y+9	; 0x09
     e62:	9a 85       	ldd	r25, Y+10	; 0x0a
     e64:	89 2b       	or	r24, r25
     e66:	91 f6       	brne	.-92     	; 0xe0c <_Z12ModeStopTimev+0x4a>
				Mode = ModeNo;
     e68:	10 92 ce 01 	sts	0x01CE, r1	; 0x8001ce <Mode+0x1>
     e6c:	10 92 cd 01 	sts	0x01CD, r1	; 0x8001cd <Mode>
     e70:	cd cf       	rjmp	.-102    	; 0xe0c <_Z12ModeStopTimev+0x4a>
			}
		}
	}
}
     e72:	df 91       	pop	r29
     e74:	cf 91       	pop	r28
     e76:	1f 91       	pop	r17
     e78:	0f 91       	pop	r16
     e7a:	ff 90       	pop	r15
     e7c:	ef 90       	pop	r14
     e7e:	df 90       	pop	r13
     e80:	cf 90       	pop	r12
     e82:	bf 90       	pop	r11
     e84:	af 90       	pop	r10
     e86:	08 95       	ret

00000e88 <_Z14ModeSetCurrentv>:

void ModeSetCurrent(){
     e88:	af 92       	push	r10
     e8a:	bf 92       	push	r11
     e8c:	cf 92       	push	r12
     e8e:	df 92       	push	r13
     e90:	ef 92       	push	r14
     e92:	ff 92       	push	r15
     e94:	0f 93       	push	r16
     e96:	1f 93       	push	r17
     e98:	cf 93       	push	r28
     e9a:	df 93       	push	r29
	
	if (Rotor.RotorStopped()){
     e9c:	86 ec       	ldi	r24, 0xC6	; 198
     e9e:	90 e0       	ldi	r25, 0x00	; 0
     ea0:	42 d4       	rcall	.+2180   	; 0x1726 <_ZN5Rotor12RotorStoppedEv>
     ea2:	88 23       	and	r24, r24
     ea4:	09 f4       	brne	.+2      	; 0xea8 <_Z14ModeSetCurrentv+0x20>
     ea6:	4a c0       	rjmp	.+148    	; 0xf3c <_Z14ModeSetCurrentv+0xb4>
		while(((ButtonUp.getpressed||ButtonDown.getpressed)&&ButtonReset.getpressed)||Mode==ModeSetWorkCarrent){
     ea8:	09 e8       	ldi	r16, 0x89	; 137
     eaa:	11 e0       	ldi	r17, 0x01	; 1
     eac:	0f 2e       	mov	r0, r31
     eae:	fe e7       	ldi	r31, 0x7E	; 126
     eb0:	af 2e       	mov	r10, r31
     eb2:	f1 e0       	ldi	r31, 0x01	; 1
     eb4:	bf 2e       	mov	r11, r31
     eb6:	f0 2d       	mov	r31, r0
     eb8:	c3 e7       	ldi	r28, 0x73	; 115
     eba:	d1 e0       	ldi	r29, 0x01	; 1
			Mode = ModeSetWorkCarrent;
     ebc:	0f 2e       	mov	r0, r31
     ebe:	fc e0       	ldi	r31, 0x0C	; 12
     ec0:	cf 2e       	mov	r12, r31
     ec2:	d1 2c       	mov	r13, r1
     ec4:	f0 2d       	mov	r31, r0
			LedMode();
			
			IfSetUp();
			IfSetDown();
			
			LED_DisplayCurrent(Rotor.WorkCurrent);
     ec6:	0f 2e       	mov	r0, r31
     ec8:	f6 ec       	ldi	r31, 0xC6	; 198
     eca:	ef 2e       	mov	r14, r31
     ecc:	f0 e0       	ldi	r31, 0x00	; 0
     ece:	ff 2e       	mov	r15, r31
     ed0:	f0 2d       	mov	r31, r0
}

void ModeSetCurrent(){
	
	if (Rotor.RotorStopped()){
		while(((ButtonUp.getpressed||ButtonDown.getpressed)&&ButtonReset.getpressed)||Mode==ModeSetWorkCarrent){
     ed2:	f8 01       	movw	r30, r16
     ed4:	81 85       	ldd	r24, Z+9	; 0x09
     ed6:	92 85       	ldd	r25, Z+10	; 0x0a
     ed8:	89 2b       	or	r24, r25
     eda:	29 f4       	brne	.+10     	; 0xee6 <_Z14ModeSetCurrentv+0x5e>
     edc:	f5 01       	movw	r30, r10
     ede:	81 85       	ldd	r24, Z+9	; 0x09
     ee0:	92 85       	ldd	r25, Z+10	; 0x0a
     ee2:	89 2b       	or	r24, r25
     ee4:	21 f0       	breq	.+8      	; 0xeee <_Z14ModeSetCurrentv+0x66>
     ee6:	89 85       	ldd	r24, Y+9	; 0x09
     ee8:	9a 85       	ldd	r25, Y+10	; 0x0a
     eea:	89 2b       	or	r24, r25
     eec:	31 f4       	brne	.+12     	; 0xefa <_Z14ModeSetCurrentv+0x72>
     eee:	80 91 cd 01 	lds	r24, 0x01CD	; 0x8001cd <Mode>
     ef2:	90 91 ce 01 	lds	r25, 0x01CE	; 0x8001ce <Mode+0x1>
     ef6:	0c 97       	sbiw	r24, 0x0c	; 12
     ef8:	09 f5       	brne	.+66     	; 0xf3c <_Z14ModeSetCurrentv+0xb4>
			Mode = ModeSetWorkCarrent;
     efa:	d0 92 ce 01 	sts	0x01CE, r13	; 0x8001ce <Mode+0x1>
     efe:	c0 92 cd 01 	sts	0x01CD, r12	; 0x8001cd <Mode>
			LedMode();
     f02:	06 de       	rcall	.-1012   	; 0xb10 <_Z7LedModev>
			
			IfSetUp();
     f04:	0f de       	rcall	.-994    	; 0xb24 <_Z7IfSetUpv>
			IfSetDown();
     f06:	84 de       	rcall	.-760    	; 0xc10 <_Z9IfSetDownv>
			
			LED_DisplayCurrent(Rotor.WorkCurrent);
     f08:	f7 01       	movw	r30, r14
     f0a:	66 a5       	ldd	r22, Z+46	; 0x2e
     f0c:	77 a5       	ldd	r23, Z+47	; 0x2f
     f0e:	07 2e       	mov	r0, r23
     f10:	00 0c       	add	r0, r0
     f12:	88 0b       	sbc	r24, r24
     f14:	99 0b       	sbc	r25, r25
     f16:	50 db       	rcall	.-2400   	; 0x5b8 <_Z18LED_DisplayCurrentl>
			
			ButtonReset.Scan();
     f18:	ce 01       	movw	r24, r28
     f1a:	30 d9       	rcall	.-3488   	; 0x17c <_ZN6Button4ScanEv>
			ButtonReset.PressRead();
     f1c:	ce 01       	movw	r24, r28
     f1e:	f6 d8       	rcall	.-3604   	; 0x10c <_ZN6Button9PressReadEv>
			
			if (!ButtonUp.getpressed&&!ButtonReset.getpressed){
     f20:	f8 01       	movw	r30, r16
     f22:	81 85       	ldd	r24, Z+9	; 0x09
     f24:	92 85       	ldd	r25, Z+10	; 0x0a
     f26:	89 2b       	or	r24, r25
     f28:	a1 f6       	brne	.-88     	; 0xed2 <_Z14ModeSetCurrentv+0x4a>
     f2a:	89 85       	ldd	r24, Y+9	; 0x09
     f2c:	9a 85       	ldd	r25, Y+10	; 0x0a
     f2e:	89 2b       	or	r24, r25
     f30:	81 f6       	brne	.-96     	; 0xed2 <_Z14ModeSetCurrentv+0x4a>
				Mode = ModeNo;
     f32:	10 92 ce 01 	sts	0x01CE, r1	; 0x8001ce <Mode+0x1>
     f36:	10 92 cd 01 	sts	0x01CD, r1	; 0x8001cd <Mode>
     f3a:	cb cf       	rjmp	.-106    	; 0xed2 <_Z14ModeSetCurrentv+0x4a>
			}					
			
		}
	}
}
     f3c:	df 91       	pop	r29
     f3e:	cf 91       	pop	r28
     f40:	1f 91       	pop	r17
     f42:	0f 91       	pop	r16
     f44:	ff 90       	pop	r15
     f46:	ef 90       	pop	r14
     f48:	df 90       	pop	r13
     f4a:	cf 90       	pop	r12
     f4c:	bf 90       	pop	r11
     f4e:	af 90       	pop	r10
     f50:	08 95       	ret

00000f52 <_Z15ModeAdjustRotorv>:

void ModeAdjustRotor(){
     f52:	cf 93       	push	r28
     f54:	df 93       	push	r29
	if (Rotor.RotorStopped()){
     f56:	86 ec       	ldi	r24, 0xC6	; 198
     f58:	90 e0       	ldi	r25, 0x00	; 0
     f5a:	e5 d3       	rcall	.+1994   	; 0x1726 <_ZN5Rotor12RotorStoppedEv>
     f5c:	88 23       	and	r24, r24
     f5e:	11 f1       	breq	.+68     	; 0xfa4 <_Z15ModeAdjustRotorv+0x52>
		while(ButtonStart.getpressed&&ButtonReset.getpressed){
     f60:	80 91 a8 01 	lds	r24, 0x01A8	; 0x8001a8 <ButtonStart+0x9>
     f64:	90 91 a9 01 	lds	r25, 0x01A9	; 0x8001a9 <ButtonStart+0xa>
     f68:	89 2b       	or	r24, r25
     f6a:	e1 f0       	breq	.+56     	; 0xfa4 <_Z15ModeAdjustRotorv+0x52>
     f6c:	80 91 7c 01 	lds	r24, 0x017C	; 0x80017c <ButtonReset+0x9>
     f70:	90 91 7d 01 	lds	r25, 0x017D	; 0x80017d <ButtonReset+0xa>
     f74:	89 2b       	or	r24, r25
     f76:	b1 f0       	breq	.+44     	; 0xfa4 <_Z15ModeAdjustRotorv+0x52>
     f78:	cf e9       	ldi	r28, 0x9F	; 159
     f7a:	d1 e0       	ldi	r29, 0x01	; 1
     f7c:	06 c0       	rjmp	.+12     	; 0xf8a <_Z15ModeAdjustRotorv+0x38>
     f7e:	80 91 7c 01 	lds	r24, 0x017C	; 0x80017c <ButtonReset+0x9>
     f82:	90 91 7d 01 	lds	r25, 0x017D	; 0x80017d <ButtonReset+0xa>
     f86:	89 2b       	or	r24, r25
     f88:	69 f0       	breq	.+26     	; 0xfa4 <_Z15ModeAdjustRotorv+0x52>
			Rotor.StartAdjust();	
     f8a:	86 ec       	ldi	r24, 0xC6	; 198
     f8c:	90 e0       	ldi	r25, 0x00	; 0
     f8e:	d8 d3       	rcall	.+1968   	; 0x1740 <_ZN5Rotor11StartAdjustEv>
			ButtonReset.Scan();
     f90:	83 e7       	ldi	r24, 0x73	; 115
     f92:	91 e0       	ldi	r25, 0x01	; 1
     f94:	f3 d8       	rcall	.-3610   	; 0x17c <_ZN6Button4ScanEv>
			ButtonReset.PressRead();
     f96:	83 e7       	ldi	r24, 0x73	; 115
     f98:	91 e0       	ldi	r25, 0x01	; 1
     f9a:	b8 d8       	rcall	.-3728   	; 0x10c <_ZN6Button9PressReadEv>
	}
}

void ModeAdjustRotor(){
	if (Rotor.RotorStopped()){
		while(ButtonStart.getpressed&&ButtonReset.getpressed){
     f9c:	89 85       	ldd	r24, Y+9	; 0x09
     f9e:	9a 85       	ldd	r25, Y+10	; 0x0a
     fa0:	89 2b       	or	r24, r25
     fa2:	69 f7       	brne	.-38     	; 0xf7e <_Z15ModeAdjustRotorv+0x2c>
			Rotor.StartAdjust();	
			ButtonReset.Scan();
			ButtonReset.PressRead();
		}
	}
}
     fa4:	df 91       	pop	r29
     fa6:	cf 91       	pop	r28
     fa8:	08 95       	ret

00000faa <_Z14ModeSettingPMWv>:

void ModeSettingPMW(){
	
	if (ButtonReset.PressRead()){
     faa:	83 e7       	ldi	r24, 0x73	; 115
     fac:	91 e0       	ldi	r25, 0x01	; 1
     fae:	ae d8       	rcall	.-3748   	; 0x10c <_ZN6Button9PressReadEv>
     fb0:	88 23       	and	r24, r24
     fb2:	f1 f0       	breq	.+60     	; 0xff0 <_Z14ModeSettingPMWv+0x46>
		switch (Mode){
     fb4:	80 91 cd 01 	lds	r24, 0x01CD	; 0x8001cd <Mode>
     fb8:	90 91 ce 01 	lds	r25, 0x01CE	; 0x8001ce <Mode+0x1>
     fbc:	82 30       	cpi	r24, 0x02	; 2
     fbe:	91 05       	cpc	r25, r1
     fc0:	61 f0       	breq	.+24     	; 0xfda <_Z14ModeSettingPMWv+0x30>
     fc2:	83 30       	cpi	r24, 0x03	; 3
     fc4:	91 05       	cpc	r25, r1
     fc6:	81 f0       	breq	.+32     	; 0xfe8 <_Z14ModeSettingPMWv+0x3e>
     fc8:	89 2b       	or	r24, r25
     fca:	91 f4       	brne	.+36     	; 0xff0 <_Z14ModeSettingPMWv+0x46>
			case ModeNo:  Mode = ModeSetPMW; break;
     fcc:	82 e0       	ldi	r24, 0x02	; 2
     fce:	90 e0       	ldi	r25, 0x00	; 0
     fd0:	90 93 ce 01 	sts	0x01CE, r25	; 0x8001ce <Mode+0x1>
     fd4:	80 93 cd 01 	sts	0x01CD, r24	; 0x8001cd <Mode>
     fd8:	08 95       	ret
			case ModeSetPMW:  Mode = ModeCurrent; break;
     fda:	83 e0       	ldi	r24, 0x03	; 3
     fdc:	90 e0       	ldi	r25, 0x00	; 0
     fde:	90 93 ce 01 	sts	0x01CE, r25	; 0x8001ce <Mode+0x1>
     fe2:	80 93 cd 01 	sts	0x01CD, r24	; 0x8001cd <Mode>
     fe6:	08 95       	ret
			case ModeCurrent:  Mode = ModeNo; break;		
     fe8:	10 92 ce 01 	sts	0x01CE, r1	; 0x8001ce <Mode+0x1>
     fec:	10 92 cd 01 	sts	0x01CD, r1	; 0x8001cd <Mode>
     ff0:	08 95       	ret

00000ff2 <_Z15ProtectControllv>:
#ifndef PROTECTCONTROLL_H_
#define PROTECTCONTROLL_H_


void ProtectControll(){
	if(Protect.Read()){
     ff2:	85 eb       	ldi	r24, 0xB5	; 181
     ff4:	91 e0       	ldi	r25, 0x01	; 1
     ff6:	22 d9       	rcall	.-3516   	; 0x23c <_ZN5Input4ReadEv>
     ff8:	88 23       	and	r24, r24
     ffa:	29 f0       	breq	.+10     	; 0x1006 <_Z15ProtectControllv+0x14>
		Rotor.Starting = false;
     ffc:	e6 ec       	ldi	r30, 0xC6	; 198
     ffe:	f0 e0       	ldi	r31, 0x00	; 0
    1000:	10 8e       	std	Z+24, r1	; 0x18
		Rotor.Stoping = false;
    1002:	11 8e       	std	Z+25, r1	; 0x19
		Rotor.Started=0;
    1004:	13 8e       	std	Z+27, r1	; 0x1b
	}
	
	if (Protect.Read()){
    1006:	85 eb       	ldi	r24, 0xB5	; 181
    1008:	91 e0       	ldi	r25, 0x01	; 1
    100a:	18 d9       	rcall	.-3536   	; 0x23c <_ZN5Input4ReadEv>
    100c:	88 23       	and	r24, r24
    100e:	21 f0       	breq	.+8      	; 0x1018 <_Z15ProtectControllv+0x26>
		Power.Off();
    1010:	8e e6       	ldi	r24, 0x6E	; 110
    1012:	91 e0       	ldi	r25, 0x01	; 1
    1014:	c9 d0       	rcall	.+402    	; 0x11a8 <_ZN6Output3OffEv>
    1016:	08 95       	ret
		}else{
		Power.On();
    1018:	8e e6       	ldi	r24, 0x6E	; 110
    101a:	91 e0       	ldi	r25, 0x01	; 1
    101c:	26 d1       	rcall	.+588    	; 0x126a <_ZN6Output2OnEv>
    101e:	08 95       	ret

00001020 <_Z11LedControllv>:

#ifndef LEDCONTROLL_H_
#define LEDCONTROLL_H_

void LedControll(){
	if (Rotor.Starting||Rotor.Stoping){
    1020:	80 91 de 00 	lds	r24, 0x00DE	; 0x8000de <__data_end+0x18>
    1024:	81 11       	cpse	r24, r1
    1026:	04 c0       	rjmp	.+8      	; 0x1030 <_Z11LedControllv+0x10>
    1028:	80 91 df 00 	lds	r24, 0x00DF	; 0x8000df <__data_end+0x19>
    102c:	88 23       	and	r24, r24
    102e:	51 f0       	breq	.+20     	; 0x1044 <_Z11LedControllv+0x24>
		BlueLed.On();
    1030:	8f e5       	ldi	r24, 0x5F	; 95
    1032:	91 e0       	ldi	r25, 0x01	; 1
    1034:	1a d1       	rcall	.+564    	; 0x126a <_ZN6Output2OnEv>
		RedLed.Off();
    1036:	84 e6       	ldi	r24, 0x64	; 100
    1038:	91 e0       	ldi	r25, 0x01	; 1
    103a:	b6 d0       	rcall	.+364    	; 0x11a8 <_ZN6Output3OffEv>
		GreenLed.Off();
    103c:	89 e6       	ldi	r24, 0x69	; 105
    103e:	91 e0       	ldi	r25, 0x01	; 1
    1040:	b3 d0       	rcall	.+358    	; 0x11a8 <_ZN6Output3OffEv>
    1042:	03 c0       	rjmp	.+6      	; 0x104a <_Z11LedControllv+0x2a>
		}else{
		BlueLed.Off();
    1044:	8f e5       	ldi	r24, 0x5F	; 95
    1046:	91 e0       	ldi	r25, 0x01	; 1
    1048:	af d0       	rcall	.+350    	; 0x11a8 <_ZN6Output3OffEv>
	}
	
	if (Rotor.Started){
    104a:	80 91 e1 00 	lds	r24, 0x00E1	; 0x8000e1 <__data_end+0x1b>
    104e:	88 23       	and	r24, r24
    1050:	79 f0       	breq	.+30     	; 0x1070 <_Z11LedControllv+0x50>
		if (!Rotor.Starting&&!Rotor.Stoping){GreenLed.On();}
    1052:	80 91 de 00 	lds	r24, 0x00DE	; 0x8000de <__data_end+0x18>
    1056:	81 11       	cpse	r24, r1
    1058:	07 c0       	rjmp	.+14     	; 0x1068 <_Z11LedControllv+0x48>
    105a:	80 91 df 00 	lds	r24, 0x00DF	; 0x8000df <__data_end+0x19>
    105e:	81 11       	cpse	r24, r1
    1060:	03 c0       	rjmp	.+6      	; 0x1068 <_Z11LedControllv+0x48>
    1062:	89 e6       	ldi	r24, 0x69	; 105
    1064:	91 e0       	ldi	r25, 0x01	; 1
    1066:	01 d1       	rcall	.+514    	; 0x126a <_ZN6Output2OnEv>
		RedLed.Off();
    1068:	84 e6       	ldi	r24, 0x64	; 100
    106a:	91 e0       	ldi	r25, 0x01	; 1
    106c:	9d d0       	rcall	.+314    	; 0x11a8 <_ZN6Output3OffEv>
    106e:	08 95       	ret
		}else{
		GreenLed.Off();
    1070:	89 e6       	ldi	r24, 0x69	; 105
    1072:	91 e0       	ldi	r25, 0x01	; 1
    1074:	99 d0       	rcall	.+306    	; 0x11a8 <_ZN6Output3OffEv>
		if (!Rotor.Starting&&!Rotor.Stoping){RedLed.On();}
    1076:	80 91 de 00 	lds	r24, 0x00DE	; 0x8000de <__data_end+0x18>
    107a:	81 11       	cpse	r24, r1
    107c:	07 c0       	rjmp	.+14     	; 0x108c <_Z11LedControllv+0x6c>
    107e:	80 91 df 00 	lds	r24, 0x00DF	; 0x8000df <__data_end+0x19>
    1082:	81 11       	cpse	r24, r1
    1084:	03 c0       	rjmp	.+6      	; 0x108c <_Z11LedControllv+0x6c>
    1086:	84 e6       	ldi	r24, 0x64	; 100
    1088:	91 e0       	ldi	r25, 0x01	; 1
    108a:	ef d0       	rcall	.+478    	; 0x126a <_ZN6Output2OnEv>
    108c:	08 95       	ret

0000108e <main>:




int main (void) { //главная цикл программы
	Init();
    108e:	c7 db       	rcall	.-2162   	; 0x81e <_Z4Initv>

	
	while(1) {
		ReadInputs();
    1090:	27 dc       	rcall	.-1970   	; 0x8e0 <_Z10ReadInputsv>
		
		StartControll();
    1092:	42 dc       	rcall	.-1916   	; 0x918 <_Z13StartControllv>
		StopControll();
    1094:	53 dc       	rcall	.-1882   	; 0x93c <_Z12StopControllv>
		ReverseControll();
    1096:	60 dc       	rcall	.-1856   	; 0x958 <_Z15ReverseControllv>
		SpeedControll();
    1098:	68 dc       	rcall	.-1840   	; 0x96a <_Z13SpeedControllv>
		
		ModeStartTime();
    109a:	30 de       	rcall	.-928    	; 0xcfc <_Z13ModeStartTimev>
		ModeStopTime();
    109c:	92 de       	rcall	.-732    	; 0xdc2 <_Z12ModeStopTimev>
		ModeSetCurrent();
    109e:	f4 de       	rcall	.-536    	; 0xe88 <_Z14ModeSetCurrentv>
		ModeAdjustRotor();
    10a0:	58 df       	rcall	.-336    	; 0xf52 <_Z15ModeAdjustRotorv>
		ModeSettingPMW();
    10a2:	83 df       	rcall	.-250    	; 0xfaa <_Z14ModeSettingPMWv>
		
		ProtectControll();
    10a4:	a6 df       	rcall	.-180    	; 0xff2 <_Z15ProtectControllv>
		
		Rotor.Activity();
    10a6:	86 ec       	ldi	r24, 0xC6	; 198
    10a8:	90 e0       	ldi	r25, 0x00	; 0
    10aa:	c3 d3       	rcall	.+1926   	; 0x1832 <_ZN5Rotor8ActivityEv>

		LedControll();
    10ac:	b9 df       	rcall	.-142    	; 0x1020 <_Z11LedControllv>
		
		DidplayFeqSet();
    10ae:	9e da       	rcall	.-2756   	; 0x5ec <_Z13DidplayFeqSetv>
    10b0:	ef cf       	rjmp	.-34     	; 0x1090 <main+0x2>

000010b2 <_GLOBAL__sub_I_dg>:

#ifndef __ROTOR_H__
#define __ROTOR_H__


class Rotor
    10b2:	84 e6       	ldi	r24, 0x64	; 100
    10b4:	e2 e6       	ldi	r30, 0x62	; 98
    10b6:	f0 e0       	ldi	r31, 0x00	; 0
    10b8:	ab ef       	ldi	r26, 0xFB	; 251
    10ba:	b0 e0       	ldi	r27, 0x00	; 0
    10bc:	01 90       	ld	r0, Z+
    10be:	0d 92       	st	X+, r0
    10c0:	8a 95       	dec	r24
    10c2:	e1 f7       	brne	.-8      	; 0x10bc <_GLOBAL__sub_I_dg+0xa>
    10c4:	08 95       	ret

000010c6 <_ZN6Output4InitEcib>:
    10c6:	fc 01       	movw	r30, r24
    10c8:	60 83       	st	Z, r22
    10ca:	41 83       	std	Z+1, r20	; 0x01
    10cc:	52 83       	std	Z+2, r21	; 0x02
    10ce:	23 83       	std	Z+3, r18	; 0x03
    10d0:	22 23       	and	r18, r18
    10d2:	a1 f1       	breq	.+104    	; 0x113c <_ZN6Output4InitEcib+0x76>
    10d4:	63 34       	cpi	r22, 0x43	; 67
    10d6:	a1 f0       	breq	.+40     	; 0x1100 <_ZN6Output4InitEcib+0x3a>
    10d8:	64 34       	cpi	r22, 0x44	; 68
    10da:	09 f1       	breq	.+66     	; 0x111e <_ZN6Output4InitEcib+0x58>
    10dc:	62 34       	cpi	r22, 0x42	; 66
    10de:	09 f0       	breq	.+2      	; 0x10e2 <_ZN6Output4InitEcib+0x1c>
    10e0:	62 c0       	rjmp	.+196    	; 0x11a6 <_ZN6Output4InitEcib+0xe0>
    10e2:	28 b3       	in	r18, 0x18	; 24
    10e4:	81 e0       	ldi	r24, 0x01	; 1
    10e6:	90 e0       	ldi	r25, 0x00	; 0
    10e8:	02 c0       	rjmp	.+4      	; 0x10ee <_ZN6Output4InitEcib+0x28>
    10ea:	88 0f       	add	r24, r24
    10ec:	99 1f       	adc	r25, r25
    10ee:	4a 95       	dec	r20
    10f0:	e2 f7       	brpl	.-8      	; 0x10ea <_ZN6Output4InitEcib+0x24>
    10f2:	92 2f       	mov	r25, r18
    10f4:	98 2b       	or	r25, r24
    10f6:	98 bb       	out	0x18, r25	; 24
    10f8:	97 b3       	in	r25, 0x17	; 23
    10fa:	89 2b       	or	r24, r25
    10fc:	87 bb       	out	0x17, r24	; 23
    10fe:	08 95       	ret
    1100:	25 b3       	in	r18, 0x15	; 21
    1102:	81 e0       	ldi	r24, 0x01	; 1
    1104:	90 e0       	ldi	r25, 0x00	; 0
    1106:	02 c0       	rjmp	.+4      	; 0x110c <_ZN6Output4InitEcib+0x46>
    1108:	88 0f       	add	r24, r24
    110a:	99 1f       	adc	r25, r25
    110c:	4a 95       	dec	r20
    110e:	e2 f7       	brpl	.-8      	; 0x1108 <_ZN6Output4InitEcib+0x42>
    1110:	92 2f       	mov	r25, r18
    1112:	98 2b       	or	r25, r24
    1114:	95 bb       	out	0x15, r25	; 21
    1116:	94 b3       	in	r25, 0x14	; 20
    1118:	89 2b       	or	r24, r25
    111a:	84 bb       	out	0x14, r24	; 20
    111c:	08 95       	ret
    111e:	22 b3       	in	r18, 0x12	; 18
    1120:	81 e0       	ldi	r24, 0x01	; 1
    1122:	90 e0       	ldi	r25, 0x00	; 0
    1124:	02 c0       	rjmp	.+4      	; 0x112a <_ZN6Output4InitEcib+0x64>
    1126:	88 0f       	add	r24, r24
    1128:	99 1f       	adc	r25, r25
    112a:	4a 95       	dec	r20
    112c:	e2 f7       	brpl	.-8      	; 0x1126 <_ZN6Output4InitEcib+0x60>
    112e:	92 2f       	mov	r25, r18
    1130:	98 2b       	or	r25, r24
    1132:	92 bb       	out	0x12, r25	; 18
    1134:	91 b3       	in	r25, 0x11	; 17
    1136:	89 2b       	or	r24, r25
    1138:	81 bb       	out	0x11, r24	; 17
    113a:	08 95       	ret
    113c:	63 34       	cpi	r22, 0x43	; 67
    113e:	a1 f0       	breq	.+40     	; 0x1168 <_ZN6Output4InitEcib+0xa2>
    1140:	64 34       	cpi	r22, 0x44	; 68
    1142:	11 f1       	breq	.+68     	; 0x1188 <_ZN6Output4InitEcib+0xc2>
    1144:	62 34       	cpi	r22, 0x42	; 66
    1146:	79 f5       	brne	.+94     	; 0x11a6 <_ZN6Output4InitEcib+0xe0>
    1148:	28 b3       	in	r18, 0x18	; 24
    114a:	81 e0       	ldi	r24, 0x01	; 1
    114c:	90 e0       	ldi	r25, 0x00	; 0
    114e:	02 c0       	rjmp	.+4      	; 0x1154 <_ZN6Output4InitEcib+0x8e>
    1150:	88 0f       	add	r24, r24
    1152:	99 1f       	adc	r25, r25
    1154:	4a 95       	dec	r20
    1156:	e2 f7       	brpl	.-8      	; 0x1150 <_ZN6Output4InitEcib+0x8a>
    1158:	98 2f       	mov	r25, r24
    115a:	90 95       	com	r25
    115c:	92 23       	and	r25, r18
    115e:	98 bb       	out	0x18, r25	; 24
    1160:	97 b3       	in	r25, 0x17	; 23
    1162:	89 2b       	or	r24, r25
    1164:	87 bb       	out	0x17, r24	; 23
    1166:	08 95       	ret
    1168:	25 b3       	in	r18, 0x15	; 21
    116a:	81 e0       	ldi	r24, 0x01	; 1
    116c:	90 e0       	ldi	r25, 0x00	; 0
    116e:	02 c0       	rjmp	.+4      	; 0x1174 <_ZN6Output4InitEcib+0xae>
    1170:	88 0f       	add	r24, r24
    1172:	99 1f       	adc	r25, r25
    1174:	4a 95       	dec	r20
    1176:	e2 f7       	brpl	.-8      	; 0x1170 <_ZN6Output4InitEcib+0xaa>
    1178:	98 2f       	mov	r25, r24
    117a:	90 95       	com	r25
    117c:	92 23       	and	r25, r18
    117e:	95 bb       	out	0x15, r25	; 21
    1180:	94 b3       	in	r25, 0x14	; 20
    1182:	89 2b       	or	r24, r25
    1184:	84 bb       	out	0x14, r24	; 20
    1186:	08 95       	ret
    1188:	22 b3       	in	r18, 0x12	; 18
    118a:	81 e0       	ldi	r24, 0x01	; 1
    118c:	90 e0       	ldi	r25, 0x00	; 0
    118e:	02 c0       	rjmp	.+4      	; 0x1194 <_ZN6Output4InitEcib+0xce>
    1190:	88 0f       	add	r24, r24
    1192:	99 1f       	adc	r25, r25
    1194:	4a 95       	dec	r20
    1196:	e2 f7       	brpl	.-8      	; 0x1190 <_ZN6Output4InitEcib+0xca>
    1198:	98 2f       	mov	r25, r24
    119a:	90 95       	com	r25
    119c:	92 23       	and	r25, r18
    119e:	92 bb       	out	0x12, r25	; 18
    11a0:	91 b3       	in	r25, 0x11	; 17
    11a2:	89 2b       	or	r24, r25
    11a4:	81 bb       	out	0x11, r24	; 17
    11a6:	08 95       	ret

000011a8 <_ZN6Output3OffEv>:
    11a8:	fc 01       	movw	r30, r24
    11aa:	f8 94       	cli
    11ac:	83 81       	ldd	r24, Z+3	; 0x03
    11ae:	88 23       	and	r24, r24
    11b0:	61 f1       	breq	.+88     	; 0x120a <_ZN6Output3OffEv+0x62>
    11b2:	80 81       	ld	r24, Z
    11b4:	83 34       	cpi	r24, 0x43	; 67
    11b6:	89 f0       	breq	.+34     	; 0x11da <_ZN6Output3OffEv+0x32>
    11b8:	84 34       	cpi	r24, 0x44	; 68
    11ba:	d9 f0       	breq	.+54     	; 0x11f2 <_ZN6Output3OffEv+0x4a>
    11bc:	82 34       	cpi	r24, 0x42	; 66
    11be:	09 f0       	breq	.+2      	; 0x11c2 <_ZN6Output3OffEv+0x1a>
    11c0:	51 c0       	rjmp	.+162    	; 0x1264 <_ZN6Output3OffEv+0xbc>
    11c2:	28 b3       	in	r18, 0x18	; 24
    11c4:	81 e0       	ldi	r24, 0x01	; 1
    11c6:	90 e0       	ldi	r25, 0x00	; 0
    11c8:	01 80       	ldd	r0, Z+1	; 0x01
    11ca:	02 c0       	rjmp	.+4      	; 0x11d0 <_ZN6Output3OffEv+0x28>
    11cc:	88 0f       	add	r24, r24
    11ce:	99 1f       	adc	r25, r25
    11d0:	0a 94       	dec	r0
    11d2:	e2 f7       	brpl	.-8      	; 0x11cc <_ZN6Output3OffEv+0x24>
    11d4:	82 2b       	or	r24, r18
    11d6:	88 bb       	out	0x18, r24	; 24
    11d8:	45 c0       	rjmp	.+138    	; 0x1264 <_ZN6Output3OffEv+0xbc>
    11da:	25 b3       	in	r18, 0x15	; 21
    11dc:	81 e0       	ldi	r24, 0x01	; 1
    11de:	90 e0       	ldi	r25, 0x00	; 0
    11e0:	01 80       	ldd	r0, Z+1	; 0x01
    11e2:	02 c0       	rjmp	.+4      	; 0x11e8 <_ZN6Output3OffEv+0x40>
    11e4:	88 0f       	add	r24, r24
    11e6:	99 1f       	adc	r25, r25
    11e8:	0a 94       	dec	r0
    11ea:	e2 f7       	brpl	.-8      	; 0x11e4 <_ZN6Output3OffEv+0x3c>
    11ec:	82 2b       	or	r24, r18
    11ee:	85 bb       	out	0x15, r24	; 21
    11f0:	39 c0       	rjmp	.+114    	; 0x1264 <_ZN6Output3OffEv+0xbc>
    11f2:	22 b3       	in	r18, 0x12	; 18
    11f4:	81 e0       	ldi	r24, 0x01	; 1
    11f6:	90 e0       	ldi	r25, 0x00	; 0
    11f8:	01 80       	ldd	r0, Z+1	; 0x01
    11fa:	02 c0       	rjmp	.+4      	; 0x1200 <_ZN6Output3OffEv+0x58>
    11fc:	88 0f       	add	r24, r24
    11fe:	99 1f       	adc	r25, r25
    1200:	0a 94       	dec	r0
    1202:	e2 f7       	brpl	.-8      	; 0x11fc <_ZN6Output3OffEv+0x54>
    1204:	82 2b       	or	r24, r18
    1206:	82 bb       	out	0x12, r24	; 18
    1208:	2d c0       	rjmp	.+90     	; 0x1264 <_ZN6Output3OffEv+0xbc>
    120a:	80 81       	ld	r24, Z
    120c:	83 34       	cpi	r24, 0x43	; 67
    120e:	89 f0       	breq	.+34     	; 0x1232 <_ZN6Output3OffEv+0x8a>
    1210:	84 34       	cpi	r24, 0x44	; 68
    1212:	e1 f0       	breq	.+56     	; 0x124c <_ZN6Output3OffEv+0xa4>
    1214:	82 34       	cpi	r24, 0x42	; 66
    1216:	31 f5       	brne	.+76     	; 0x1264 <_ZN6Output3OffEv+0xbc>
    1218:	28 b3       	in	r18, 0x18	; 24
    121a:	81 e0       	ldi	r24, 0x01	; 1
    121c:	90 e0       	ldi	r25, 0x00	; 0
    121e:	01 80       	ldd	r0, Z+1	; 0x01
    1220:	02 c0       	rjmp	.+4      	; 0x1226 <_ZN6Output3OffEv+0x7e>
    1222:	88 0f       	add	r24, r24
    1224:	99 1f       	adc	r25, r25
    1226:	0a 94       	dec	r0
    1228:	e2 f7       	brpl	.-8      	; 0x1222 <_ZN6Output3OffEv+0x7a>
    122a:	80 95       	com	r24
    122c:	82 23       	and	r24, r18
    122e:	88 bb       	out	0x18, r24	; 24
    1230:	19 c0       	rjmp	.+50     	; 0x1264 <_ZN6Output3OffEv+0xbc>
    1232:	25 b3       	in	r18, 0x15	; 21
    1234:	81 e0       	ldi	r24, 0x01	; 1
    1236:	90 e0       	ldi	r25, 0x00	; 0
    1238:	01 80       	ldd	r0, Z+1	; 0x01
    123a:	02 c0       	rjmp	.+4      	; 0x1240 <_ZN6Output3OffEv+0x98>
    123c:	88 0f       	add	r24, r24
    123e:	99 1f       	adc	r25, r25
    1240:	0a 94       	dec	r0
    1242:	e2 f7       	brpl	.-8      	; 0x123c <_ZN6Output3OffEv+0x94>
    1244:	80 95       	com	r24
    1246:	82 23       	and	r24, r18
    1248:	85 bb       	out	0x15, r24	; 21
    124a:	0c c0       	rjmp	.+24     	; 0x1264 <_ZN6Output3OffEv+0xbc>
    124c:	22 b3       	in	r18, 0x12	; 18
    124e:	81 e0       	ldi	r24, 0x01	; 1
    1250:	90 e0       	ldi	r25, 0x00	; 0
    1252:	01 80       	ldd	r0, Z+1	; 0x01
    1254:	02 c0       	rjmp	.+4      	; 0x125a <_ZN6Output3OffEv+0xb2>
    1256:	88 0f       	add	r24, r24
    1258:	99 1f       	adc	r25, r25
    125a:	0a 94       	dec	r0
    125c:	e2 f7       	brpl	.-8      	; 0x1256 <_ZN6Output3OffEv+0xae>
    125e:	80 95       	com	r24
    1260:	82 23       	and	r24, r18
    1262:	82 bb       	out	0x12, r24	; 18
    1264:	14 82       	std	Z+4, r1	; 0x04
    1266:	78 94       	sei
    1268:	08 95       	ret

0000126a <_ZN6Output2OnEv>:
    126a:	fc 01       	movw	r30, r24
    126c:	f8 94       	cli
    126e:	83 81       	ldd	r24, Z+3	; 0x03
    1270:	81 11       	cpse	r24, r1
    1272:	2c c0       	rjmp	.+88     	; 0x12cc <_ZN6Output2OnEv+0x62>
    1274:	80 81       	ld	r24, Z
    1276:	83 34       	cpi	r24, 0x43	; 67
    1278:	89 f0       	breq	.+34     	; 0x129c <_ZN6Output2OnEv+0x32>
    127a:	84 34       	cpi	r24, 0x44	; 68
    127c:	d9 f0       	breq	.+54     	; 0x12b4 <_ZN6Output2OnEv+0x4a>
    127e:	82 34       	cpi	r24, 0x42	; 66
    1280:	09 f0       	breq	.+2      	; 0x1284 <_ZN6Output2OnEv+0x1a>
    1282:	51 c0       	rjmp	.+162    	; 0x1326 <_ZN6Output2OnEv+0xbc>
    1284:	28 b3       	in	r18, 0x18	; 24
    1286:	81 e0       	ldi	r24, 0x01	; 1
    1288:	90 e0       	ldi	r25, 0x00	; 0
    128a:	01 80       	ldd	r0, Z+1	; 0x01
    128c:	02 c0       	rjmp	.+4      	; 0x1292 <_ZN6Output2OnEv+0x28>
    128e:	88 0f       	add	r24, r24
    1290:	99 1f       	adc	r25, r25
    1292:	0a 94       	dec	r0
    1294:	e2 f7       	brpl	.-8      	; 0x128e <_ZN6Output2OnEv+0x24>
    1296:	82 2b       	or	r24, r18
    1298:	88 bb       	out	0x18, r24	; 24
    129a:	45 c0       	rjmp	.+138    	; 0x1326 <_ZN6Output2OnEv+0xbc>
    129c:	25 b3       	in	r18, 0x15	; 21
    129e:	81 e0       	ldi	r24, 0x01	; 1
    12a0:	90 e0       	ldi	r25, 0x00	; 0
    12a2:	01 80       	ldd	r0, Z+1	; 0x01
    12a4:	02 c0       	rjmp	.+4      	; 0x12aa <_ZN6Output2OnEv+0x40>
    12a6:	88 0f       	add	r24, r24
    12a8:	99 1f       	adc	r25, r25
    12aa:	0a 94       	dec	r0
    12ac:	e2 f7       	brpl	.-8      	; 0x12a6 <_ZN6Output2OnEv+0x3c>
    12ae:	82 2b       	or	r24, r18
    12b0:	85 bb       	out	0x15, r24	; 21
    12b2:	39 c0       	rjmp	.+114    	; 0x1326 <_ZN6Output2OnEv+0xbc>
    12b4:	22 b3       	in	r18, 0x12	; 18
    12b6:	81 e0       	ldi	r24, 0x01	; 1
    12b8:	90 e0       	ldi	r25, 0x00	; 0
    12ba:	01 80       	ldd	r0, Z+1	; 0x01
    12bc:	02 c0       	rjmp	.+4      	; 0x12c2 <_ZN6Output2OnEv+0x58>
    12be:	88 0f       	add	r24, r24
    12c0:	99 1f       	adc	r25, r25
    12c2:	0a 94       	dec	r0
    12c4:	e2 f7       	brpl	.-8      	; 0x12be <_ZN6Output2OnEv+0x54>
    12c6:	82 2b       	or	r24, r18
    12c8:	82 bb       	out	0x12, r24	; 18
    12ca:	2d c0       	rjmp	.+90     	; 0x1326 <_ZN6Output2OnEv+0xbc>
    12cc:	80 81       	ld	r24, Z
    12ce:	83 34       	cpi	r24, 0x43	; 67
    12d0:	89 f0       	breq	.+34     	; 0x12f4 <_ZN6Output2OnEv+0x8a>
    12d2:	84 34       	cpi	r24, 0x44	; 68
    12d4:	e1 f0       	breq	.+56     	; 0x130e <_ZN6Output2OnEv+0xa4>
    12d6:	82 34       	cpi	r24, 0x42	; 66
    12d8:	31 f5       	brne	.+76     	; 0x1326 <_ZN6Output2OnEv+0xbc>
    12da:	28 b3       	in	r18, 0x18	; 24
    12dc:	81 e0       	ldi	r24, 0x01	; 1
    12de:	90 e0       	ldi	r25, 0x00	; 0
    12e0:	01 80       	ldd	r0, Z+1	; 0x01
    12e2:	02 c0       	rjmp	.+4      	; 0x12e8 <_ZN6Output2OnEv+0x7e>
    12e4:	88 0f       	add	r24, r24
    12e6:	99 1f       	adc	r25, r25
    12e8:	0a 94       	dec	r0
    12ea:	e2 f7       	brpl	.-8      	; 0x12e4 <_ZN6Output2OnEv+0x7a>
    12ec:	80 95       	com	r24
    12ee:	82 23       	and	r24, r18
    12f0:	88 bb       	out	0x18, r24	; 24
    12f2:	19 c0       	rjmp	.+50     	; 0x1326 <_ZN6Output2OnEv+0xbc>
    12f4:	25 b3       	in	r18, 0x15	; 21
    12f6:	81 e0       	ldi	r24, 0x01	; 1
    12f8:	90 e0       	ldi	r25, 0x00	; 0
    12fa:	01 80       	ldd	r0, Z+1	; 0x01
    12fc:	02 c0       	rjmp	.+4      	; 0x1302 <_ZN6Output2OnEv+0x98>
    12fe:	88 0f       	add	r24, r24
    1300:	99 1f       	adc	r25, r25
    1302:	0a 94       	dec	r0
    1304:	e2 f7       	brpl	.-8      	; 0x12fe <_ZN6Output2OnEv+0x94>
    1306:	80 95       	com	r24
    1308:	82 23       	and	r24, r18
    130a:	85 bb       	out	0x15, r24	; 21
    130c:	0c c0       	rjmp	.+24     	; 0x1326 <_ZN6Output2OnEv+0xbc>
    130e:	22 b3       	in	r18, 0x12	; 18
    1310:	81 e0       	ldi	r24, 0x01	; 1
    1312:	90 e0       	ldi	r25, 0x00	; 0
    1314:	01 80       	ldd	r0, Z+1	; 0x01
    1316:	02 c0       	rjmp	.+4      	; 0x131c <_ZN6Output2OnEv+0xb2>
    1318:	88 0f       	add	r24, r24
    131a:	99 1f       	adc	r25, r25
    131c:	0a 94       	dec	r0
    131e:	e2 f7       	brpl	.-8      	; 0x1318 <_ZN6Output2OnEv+0xae>
    1320:	80 95       	com	r24
    1322:	82 23       	and	r24, r18
    1324:	82 bb       	out	0x12, r24	; 18
    1326:	81 e0       	ldi	r24, 0x01	; 1
    1328:	84 83       	std	Z+4, r24	; 0x04
    132a:	78 94       	sei
    132c:	08 95       	ret

0000132e <_ZN5Rotor12SetFrequencyEi>:
    132e:	cf 93       	push	r28
    1330:	df 93       	push	r29
    1332:	ec 01       	movw	r28, r24
    1334:	9b 01       	movw	r18, r22
    1336:	77 0f       	add	r23, r23
    1338:	44 0b       	sbc	r20, r20
    133a:	55 0b       	sbc	r21, r21
    133c:	28 83       	st	Y, r18
    133e:	39 83       	std	Y+1, r19	; 0x01
    1340:	4a 83       	std	Y+2, r20	; 0x02
    1342:	5b 83       	std	Y+3, r21	; 0x03
    1344:	68 e5       	ldi	r22, 0x58	; 88
    1346:	74 e1       	ldi	r23, 0x14	; 20
    1348:	80 e0       	ldi	r24, 0x00	; 0
    134a:	90 e0       	ldi	r25, 0x00	; 0
    134c:	53 d4       	rcall	.+2214   	; 0x1bf4 <__udivmodsi4>
    134e:	3b bd       	out	0x2b, r19	; 43
    1350:	2a bd       	out	0x2a, r18	; 42
    1352:	8b 8d       	ldd	r24, Y+27	; 0x1b
    1354:	81 11       	cpse	r24, r1
    1356:	03 c0       	rjmp	.+6      	; 0x135e <_ZN5Rotor12SetFrequencyEi+0x30>
    1358:	88 8d       	ldd	r24, Y+24	; 0x18
    135a:	88 23       	and	r24, r24
    135c:	d9 f0       	breq	.+54     	; 0x1394 <_ZN5Rotor12SetFrequencyEi+0x66>
    135e:	88 81       	ld	r24, Y
    1360:	99 81       	ldd	r25, Y+1	; 0x01
    1362:	aa 81       	ldd	r26, Y+2	; 0x02
    1364:	bb 81       	ldd	r27, Y+3	; 0x03
    1366:	82 33       	cpi	r24, 0x32	; 50
    1368:	91 05       	cpc	r25, r1
    136a:	a1 05       	cpc	r26, r1
    136c:	b1 05       	cpc	r27, r1
    136e:	40 f0       	brcs	.+16     	; 0x1380 <_ZN5Rotor12SetFrequencyEi+0x52>
    1370:	fe 01       	movw	r30, r28
    1372:	e9 56       	subi	r30, 0x69	; 105
    1374:	ff 4f       	sbci	r31, 0xFF	; 255
    1376:	80 81       	ld	r24, Z
    1378:	91 81       	ldd	r25, Z+1	; 0x01
    137a:	9d a7       	std	Y+45, r25	; 0x2d
    137c:	8c a7       	std	Y+44, r24	; 0x2c
    137e:	0c c0       	rjmp	.+24     	; 0x1398 <_ZN5Rotor12SetFrequencyEi+0x6a>
    1380:	88 0f       	add	r24, r24
    1382:	99 1f       	adc	r25, r25
    1384:	fe 01       	movw	r30, r28
    1386:	e8 0f       	add	r30, r24
    1388:	f9 1f       	adc	r31, r25
    138a:	85 a9       	ldd	r24, Z+53	; 0x35
    138c:	96 a9       	ldd	r25, Z+54	; 0x36
    138e:	9d a7       	std	Y+45, r25	; 0x2d
    1390:	8c a7       	std	Y+44, r24	; 0x2c
    1392:	02 c0       	rjmp	.+4      	; 0x1398 <_ZN5Rotor12SetFrequencyEi+0x6a>
    1394:	1d a6       	std	Y+45, r1	; 0x2d
    1396:	1c a6       	std	Y+44, r1	; 0x2c
    1398:	8c a5       	ldd	r24, Y+44	; 0x2c
    139a:	83 bd       	out	0x23, r24	; 35
    139c:	df 91       	pop	r29
    139e:	cf 91       	pop	r28
    13a0:	08 95       	ret

000013a2 <_ZN5Rotor4InitEv>:
    13a2:	cf 92       	push	r12
    13a4:	df 92       	push	r13
    13a6:	ef 92       	push	r14
    13a8:	ff 92       	push	r15
    13aa:	cf 93       	push	r28
    13ac:	df 93       	push	r29
    13ae:	ec 01       	movw	r28, r24
    13b0:	88 e2       	ldi	r24, 0x28	; 40
    13b2:	90 e0       	ldi	r25, 0x00	; 0
    13b4:	a0 e0       	ldi	r26, 0x00	; 0
    13b6:	b0 e0       	ldi	r27, 0x00	; 0
    13b8:	8c 83       	std	Y+4, r24	; 0x04
    13ba:	9d 83       	std	Y+5, r25	; 0x05
    13bc:	ae 83       	std	Y+6, r26	; 0x06
    13be:	bf 83       	std	Y+7, r27	; 0x07
    13c0:	c1 2c       	mov	r12, r1
    13c2:	d1 2c       	mov	r13, r1
    13c4:	76 01       	movw	r14, r12
    13c6:	c3 94       	inc	r12
    13c8:	c8 86       	std	Y+8, r12	; 0x08
    13ca:	d9 86       	std	Y+9, r13	; 0x09
    13cc:	ea 86       	std	Y+10, r14	; 0x0a
    13ce:	fb 86       	std	Y+11, r15	; 0x0b
    13d0:	86 e9       	ldi	r24, 0x96	; 150
    13d2:	90 e0       	ldi	r25, 0x00	; 0
    13d4:	a0 e0       	ldi	r26, 0x00	; 0
    13d6:	b0 e0       	ldi	r27, 0x00	; 0
    13d8:	8c 87       	std	Y+12, r24	; 0x0c
    13da:	9d 87       	std	Y+13, r25	; 0x0d
    13dc:	ae 87       	std	Y+14, r26	; 0x0e
    13de:	bf 87       	std	Y+15, r27	; 0x0f
    13e0:	84 e6       	ldi	r24, 0x64	; 100
    13e2:	90 e0       	ldi	r25, 0x00	; 0
    13e4:	a0 e0       	ldi	r26, 0x00	; 0
    13e6:	b0 e0       	ldi	r27, 0x00	; 0
    13e8:	88 8b       	std	Y+16, r24	; 0x10
    13ea:	99 8b       	std	Y+17, r25	; 0x11
    13ec:	aa 8b       	std	Y+18, r26	; 0x12
    13ee:	bb 8b       	std	Y+19, r27	; 0x13
    13f0:	80 e3       	ldi	r24, 0x30	; 48
    13f2:	95 e7       	ldi	r25, 0x75	; 117
    13f4:	a0 e0       	ldi	r26, 0x00	; 0
    13f6:	b0 e0       	ldi	r27, 0x00	; 0
    13f8:	8c 8b       	std	Y+20, r24	; 0x14
    13fa:	9d 8b       	std	Y+21, r25	; 0x15
    13fc:	ae 8b       	std	Y+22, r26	; 0x16
    13fe:	bf 8b       	std	Y+23, r27	; 0x17
    1400:	68 e2       	ldi	r22, 0x28	; 40
    1402:	70 e0       	ldi	r23, 0x00	; 0
    1404:	ce 01       	movw	r24, r28
    1406:	93 df       	rcall	.-218    	; 0x132e <_ZN5Rotor12SetFrequencyEi>
    1408:	88 ec       	ldi	r24, 0xC8	; 200
    140a:	90 e0       	ldi	r25, 0x00	; 0
    140c:	a0 e0       	ldi	r26, 0x00	; 0
    140e:	b0 e0       	ldi	r27, 0x00	; 0
    1410:	8e 8f       	std	Y+30, r24	; 0x1e
    1412:	9f 8f       	std	Y+31, r25	; 0x1f
    1414:	a8 a3       	std	Y+32, r26	; 0x20
    1416:	b9 a3       	std	Y+33, r27	; 0x21
    1418:	8e a3       	std	Y+38, r24	; 0x26
    141a:	9f a3       	std	Y+39, r25	; 0x27
    141c:	a8 a7       	std	Y+40, r26	; 0x28
    141e:	b9 a7       	std	Y+41, r27	; 0x29
    1420:	ca a2       	std	Y+34, r12	; 0x22
    1422:	db a2       	std	Y+35, r13	; 0x23
    1424:	ec a2       	std	Y+36, r14	; 0x24
    1426:	fd a2       	std	Y+37, r15	; 0x25
    1428:	81 e0       	ldi	r24, 0x01	; 1
    142a:	90 e0       	ldi	r25, 0x00	; 0
    142c:	9b a7       	std	Y+43, r25	; 0x2b
    142e:	8a a7       	std	Y+42, r24	; 0x2a
    1430:	8e e1       	ldi	r24, 0x1E	; 30
    1432:	90 e0       	ldi	r25, 0x00	; 0
    1434:	9f a7       	std	Y+47, r25	; 0x2f
    1436:	8e a7       	std	Y+46, r24	; 0x2e
    1438:	df 91       	pop	r29
    143a:	cf 91       	pop	r28
    143c:	ff 90       	pop	r15
    143e:	ef 90       	pop	r14
    1440:	df 90       	pop	r13
    1442:	cf 90       	pop	r12
    1444:	08 95       	ret

00001446 <_ZN5Rotor10FrequncyUpEi>:
    1446:	fc 01       	movw	r30, r24
    1448:	cb 01       	movw	r24, r22
    144a:	77 0f       	add	r23, r23
    144c:	aa 0b       	sbc	r26, r26
    144e:	bb 0b       	sbc	r27, r27
    1450:	44 81       	ldd	r20, Z+4	; 0x04
    1452:	55 81       	ldd	r21, Z+5	; 0x05
    1454:	66 81       	ldd	r22, Z+6	; 0x06
    1456:	77 81       	ldd	r23, Z+7	; 0x07
    1458:	84 0f       	add	r24, r20
    145a:	95 1f       	adc	r25, r21
    145c:	a6 1f       	adc	r26, r22
    145e:	b7 1f       	adc	r27, r23
    1460:	84 83       	std	Z+4, r24	; 0x04
    1462:	95 83       	std	Z+5, r25	; 0x05
    1464:	a6 83       	std	Z+6, r26	; 0x06
    1466:	b7 83       	std	Z+7, r27	; 0x07
    1468:	40 85       	ldd	r20, Z+8	; 0x08
    146a:	51 85       	ldd	r21, Z+9	; 0x09
    146c:	62 85       	ldd	r22, Z+10	; 0x0a
    146e:	73 85       	ldd	r23, Z+11	; 0x0b
    1470:	84 17       	cp	r24, r20
    1472:	95 07       	cpc	r25, r21
    1474:	a6 07       	cpc	r26, r22
    1476:	b7 07       	cpc	r27, r23
    1478:	20 f4       	brcc	.+8      	; 0x1482 <_ZN5Rotor10FrequncyUpEi+0x3c>
    147a:	44 83       	std	Z+4, r20	; 0x04
    147c:	55 83       	std	Z+5, r21	; 0x05
    147e:	66 83       	std	Z+6, r22	; 0x06
    1480:	77 83       	std	Z+7, r23	; 0x07
    1482:	84 85       	ldd	r24, Z+12	; 0x0c
    1484:	95 85       	ldd	r25, Z+13	; 0x0d
    1486:	a6 85       	ldd	r26, Z+14	; 0x0e
    1488:	b7 85       	ldd	r27, Z+15	; 0x0f
    148a:	44 81       	ldd	r20, Z+4	; 0x04
    148c:	55 81       	ldd	r21, Z+5	; 0x05
    148e:	66 81       	ldd	r22, Z+6	; 0x06
    1490:	77 81       	ldd	r23, Z+7	; 0x07
    1492:	84 17       	cp	r24, r20
    1494:	95 07       	cpc	r25, r21
    1496:	a6 07       	cpc	r26, r22
    1498:	b7 07       	cpc	r27, r23
    149a:	20 f4       	brcc	.+8      	; 0x14a4 <_ZN5Rotor10FrequncyUpEi+0x5e>
    149c:	84 83       	std	Z+4, r24	; 0x04
    149e:	95 83       	std	Z+5, r25	; 0x05
    14a0:	a6 83       	std	Z+6, r26	; 0x06
    14a2:	b7 83       	std	Z+7, r27	; 0x07
    14a4:	84 81       	ldd	r24, Z+4	; 0x04
    14a6:	95 81       	ldd	r25, Z+5	; 0x05
    14a8:	a6 81       	ldd	r26, Z+6	; 0x06
    14aa:	b7 81       	ldd	r27, Z+7	; 0x07
    14ac:	80 83       	st	Z, r24
    14ae:	91 83       	std	Z+1, r25	; 0x01
    14b0:	a2 83       	std	Z+2, r26	; 0x02
    14b2:	b3 83       	std	Z+3, r27	; 0x03
    14b4:	08 95       	ret

000014b6 <_ZN5Rotor13FrequencyDownEi>:
    14b6:	cf 92       	push	r12
    14b8:	df 92       	push	r13
    14ba:	ef 92       	push	r14
    14bc:	ff 92       	push	r15
    14be:	0f 93       	push	r16
    14c0:	1f 93       	push	r17
    14c2:	fc 01       	movw	r30, r24
    14c4:	04 81       	ldd	r16, Z+4	; 0x04
    14c6:	15 81       	ldd	r17, Z+5	; 0x05
    14c8:	26 81       	ldd	r18, Z+6	; 0x06
    14ca:	37 81       	ldd	r19, Z+7	; 0x07
    14cc:	cb 01       	movw	r24, r22
    14ce:	77 0f       	add	r23, r23
    14d0:	aa 0b       	sbc	r26, r26
    14d2:	bb 0b       	sbc	r27, r27
    14d4:	68 01       	movw	r12, r16
    14d6:	79 01       	movw	r14, r18
    14d8:	c8 1a       	sub	r12, r24
    14da:	d9 0a       	sbc	r13, r25
    14dc:	ea 0a       	sbc	r14, r26
    14de:	fb 0a       	sbc	r15, r27
    14e0:	40 85       	ldd	r20, Z+8	; 0x08
    14e2:	51 85       	ldd	r21, Z+9	; 0x09
    14e4:	62 85       	ldd	r22, Z+10	; 0x0a
    14e6:	73 85       	ldd	r23, Z+11	; 0x0b
    14e8:	4c 15       	cp	r20, r12
    14ea:	5d 05       	cpc	r21, r13
    14ec:	6e 05       	cpc	r22, r14
    14ee:	7f 05       	cpc	r23, r15
    14f0:	50 f4       	brcc	.+20     	; 0x1506 <_ZN5Rotor13FrequencyDownEi+0x50>
    14f2:	80 17       	cp	r24, r16
    14f4:	91 07       	cpc	r25, r17
    14f6:	a2 07       	cpc	r26, r18
    14f8:	b3 07       	cpc	r27, r19
    14fa:	28 f4       	brcc	.+10     	; 0x1506 <_ZN5Rotor13FrequencyDownEi+0x50>
    14fc:	c4 82       	std	Z+4, r12	; 0x04
    14fe:	d5 82       	std	Z+5, r13	; 0x05
    1500:	e6 82       	std	Z+6, r14	; 0x06
    1502:	f7 82       	std	Z+7, r15	; 0x07
    1504:	04 c0       	rjmp	.+8      	; 0x150e <_ZN5Rotor13FrequencyDownEi+0x58>
    1506:	44 83       	std	Z+4, r20	; 0x04
    1508:	55 83       	std	Z+5, r21	; 0x05
    150a:	66 83       	std	Z+6, r22	; 0x06
    150c:	77 83       	std	Z+7, r23	; 0x07
    150e:	84 81       	ldd	r24, Z+4	; 0x04
    1510:	95 81       	ldd	r25, Z+5	; 0x05
    1512:	a6 81       	ldd	r26, Z+6	; 0x06
    1514:	b7 81       	ldd	r27, Z+7	; 0x07
    1516:	80 83       	st	Z, r24
    1518:	91 83       	std	Z+1, r25	; 0x01
    151a:	a2 83       	std	Z+2, r26	; 0x02
    151c:	b3 83       	std	Z+3, r27	; 0x03
    151e:	1f 91       	pop	r17
    1520:	0f 91       	pop	r16
    1522:	ff 90       	pop	r15
    1524:	ef 90       	pop	r14
    1526:	df 90       	pop	r13
    1528:	cf 90       	pop	r12
    152a:	08 95       	ret

0000152c <_ZN5Rotor5PMWUpEi>:
    152c:	0f 93       	push	r16
    152e:	1f 93       	push	r17
    1530:	db 01       	movw	r26, r22
    1532:	fc 01       	movw	r30, r24
    1534:	40 81       	ld	r20, Z
    1536:	51 81       	ldd	r21, Z+1	; 0x01
    1538:	62 81       	ldd	r22, Z+2	; 0x02
    153a:	73 81       	ldd	r23, Z+3	; 0x03
    153c:	8a 01       	movw	r16, r20
    153e:	9b 01       	movw	r18, r22
    1540:	01 50       	subi	r16, 0x01	; 1
    1542:	11 09       	sbc	r17, r1
    1544:	21 09       	sbc	r18, r1
    1546:	31 09       	sbc	r19, r1
    1548:	01 33       	cpi	r16, 0x31	; 49
    154a:	11 05       	cpc	r17, r1
    154c:	21 05       	cpc	r18, r1
    154e:	31 05       	cpc	r19, r1
    1550:	a0 f4       	brcc	.+40     	; 0x157a <_ZN5Rotor5PMWUpEi+0x4e>
    1552:	fa 01       	movw	r30, r20
    1554:	ee 0f       	add	r30, r30
    1556:	ff 1f       	adc	r31, r31
    1558:	e8 0f       	add	r30, r24
    155a:	f9 1f       	adc	r31, r25
    155c:	25 a9       	ldd	r18, Z+53	; 0x35
    155e:	36 a9       	ldd	r19, Z+54	; 0x36
    1560:	2a 0f       	add	r18, r26
    1562:	3b 1f       	adc	r19, r27
    1564:	2f 3f       	cpi	r18, 0xFF	; 255
    1566:	31 05       	cpc	r19, r1
    1568:	09 f0       	breq	.+2      	; 0x156c <_ZN5Rotor5PMWUpEi+0x40>
    156a:	3c f4       	brge	.+14     	; 0x157a <_ZN5Rotor5PMWUpEi+0x4e>
    156c:	44 0f       	add	r20, r20
    156e:	55 1f       	adc	r21, r21
    1570:	fc 01       	movw	r30, r24
    1572:	e4 0f       	add	r30, r20
    1574:	f5 1f       	adc	r31, r21
    1576:	36 ab       	std	Z+54, r19	; 0x36
    1578:	25 ab       	std	Z+53, r18	; 0x35
    157a:	1f 91       	pop	r17
    157c:	0f 91       	pop	r16
    157e:	08 95       	ret

00001580 <_ZN5Rotor7PMWDownEi>:
    1580:	0f 93       	push	r16
    1582:	1f 93       	push	r17
    1584:	db 01       	movw	r26, r22
    1586:	fc 01       	movw	r30, r24
    1588:	40 81       	ld	r20, Z
    158a:	51 81       	ldd	r21, Z+1	; 0x01
    158c:	62 81       	ldd	r22, Z+2	; 0x02
    158e:	73 81       	ldd	r23, Z+3	; 0x03
    1590:	8a 01       	movw	r16, r20
    1592:	9b 01       	movw	r18, r22
    1594:	01 50       	subi	r16, 0x01	; 1
    1596:	11 09       	sbc	r17, r1
    1598:	21 09       	sbc	r18, r1
    159a:	31 09       	sbc	r19, r1
    159c:	01 33       	cpi	r16, 0x31	; 49
    159e:	11 05       	cpc	r17, r1
    15a0:	21 05       	cpc	r18, r1
    15a2:	31 05       	cpc	r19, r1
    15a4:	98 f4       	brcc	.+38     	; 0x15cc <_ZN5Rotor7PMWDownEi+0x4c>
    15a6:	fa 01       	movw	r30, r20
    15a8:	ee 0f       	add	r30, r30
    15aa:	ff 1f       	adc	r31, r31
    15ac:	e8 0f       	add	r30, r24
    15ae:	f9 1f       	adc	r31, r25
    15b0:	25 a9       	ldd	r18, Z+53	; 0x35
    15b2:	36 a9       	ldd	r19, Z+54	; 0x36
    15b4:	2a 1b       	sub	r18, r26
    15b6:	3b 0b       	sbc	r19, r27
    15b8:	12 16       	cp	r1, r18
    15ba:	13 06       	cpc	r1, r19
    15bc:	3c f4       	brge	.+14     	; 0x15cc <_ZN5Rotor7PMWDownEi+0x4c>
    15be:	44 0f       	add	r20, r20
    15c0:	55 1f       	adc	r21, r21
    15c2:	fc 01       	movw	r30, r24
    15c4:	e4 0f       	add	r30, r20
    15c6:	f5 1f       	adc	r31, r21
    15c8:	36 ab       	std	Z+54, r19	; 0x36
    15ca:	25 ab       	std	Z+53, r18	; 0x35
    15cc:	1f 91       	pop	r17
    15ce:	0f 91       	pop	r16
    15d0:	08 95       	ret

000015d2 <_ZN5Rotor10StartimeUpEi>:
    15d2:	0f 93       	push	r16
    15d4:	1f 93       	push	r17
    15d6:	fc 01       	movw	r30, r24
    15d8:	ab 01       	movw	r20, r22
    15da:	77 0f       	add	r23, r23
    15dc:	66 0b       	sbc	r22, r22
    15de:	77 0b       	sbc	r23, r23
    15e0:	06 8d       	ldd	r16, Z+30	; 0x1e
    15e2:	17 8d       	ldd	r17, Z+31	; 0x1f
    15e4:	20 a1       	ldd	r18, Z+32	; 0x20
    15e6:	31 a1       	ldd	r19, Z+33	; 0x21
    15e8:	40 0f       	add	r20, r16
    15ea:	51 1f       	adc	r21, r17
    15ec:	62 1f       	adc	r22, r18
    15ee:	73 1f       	adc	r23, r19
    15f0:	46 8f       	std	Z+30, r20	; 0x1e
    15f2:	57 8f       	std	Z+31, r21	; 0x1f
    15f4:	60 a3       	std	Z+32, r22	; 0x20
    15f6:	71 a3       	std	Z+33, r23	; 0x21
    15f8:	84 89       	ldd	r24, Z+20	; 0x14
    15fa:	95 89       	ldd	r25, Z+21	; 0x15
    15fc:	a6 89       	ldd	r26, Z+22	; 0x16
    15fe:	b7 89       	ldd	r27, Z+23	; 0x17
    1600:	84 17       	cp	r24, r20
    1602:	95 07       	cpc	r25, r21
    1604:	a6 07       	cpc	r26, r22
    1606:	b7 07       	cpc	r27, r23
    1608:	20 f4       	brcc	.+8      	; 0x1612 <_ZN5Rotor10StartimeUpEi+0x40>
    160a:	86 8f       	std	Z+30, r24	; 0x1e
    160c:	97 8f       	std	Z+31, r25	; 0x1f
    160e:	a0 a3       	std	Z+32, r26	; 0x20
    1610:	b1 a3       	std	Z+33, r27	; 0x21
    1612:	1f 91       	pop	r17
    1614:	0f 91       	pop	r16
    1616:	08 95       	ret

00001618 <_ZN5Rotor12StartimeDownEi>:
    1618:	fc 01       	movw	r30, r24
    161a:	86 8d       	ldd	r24, Z+30	; 0x1e
    161c:	97 8d       	ldd	r25, Z+31	; 0x1f
    161e:	a0 a1       	ldd	r26, Z+32	; 0x20
    1620:	b1 a1       	ldd	r27, Z+33	; 0x21
    1622:	ab 01       	movw	r20, r22
    1624:	77 0f       	add	r23, r23
    1626:	66 0b       	sbc	r22, r22
    1628:	77 0b       	sbc	r23, r23
    162a:	48 17       	cp	r20, r24
    162c:	59 07       	cpc	r21, r25
    162e:	6a 07       	cpc	r22, r26
    1630:	7b 07       	cpc	r23, r27
    1632:	48 f4       	brcc	.+18     	; 0x1646 <_ZN5Rotor12StartimeDownEi+0x2e>
    1634:	84 1b       	sub	r24, r20
    1636:	95 0b       	sbc	r25, r21
    1638:	a6 0b       	sbc	r26, r22
    163a:	b7 0b       	sbc	r27, r23
    163c:	86 8f       	std	Z+30, r24	; 0x1e
    163e:	97 8f       	std	Z+31, r25	; 0x1f
    1640:	a0 a3       	std	Z+32, r26	; 0x20
    1642:	b1 a3       	std	Z+33, r27	; 0x21
    1644:	08 95       	ret
    1646:	80 89       	ldd	r24, Z+16	; 0x10
    1648:	91 89       	ldd	r25, Z+17	; 0x11
    164a:	a2 89       	ldd	r26, Z+18	; 0x12
    164c:	b3 89       	ldd	r27, Z+19	; 0x13
    164e:	86 8f       	std	Z+30, r24	; 0x1e
    1650:	97 8f       	std	Z+31, r25	; 0x1f
    1652:	a0 a3       	std	Z+32, r26	; 0x20
    1654:	b1 a3       	std	Z+33, r27	; 0x21
    1656:	08 95       	ret

00001658 <_ZN5Rotor10StoptimeUpEi>:
    1658:	0f 93       	push	r16
    165a:	1f 93       	push	r17
    165c:	fc 01       	movw	r30, r24
    165e:	ab 01       	movw	r20, r22
    1660:	77 0f       	add	r23, r23
    1662:	66 0b       	sbc	r22, r22
    1664:	77 0b       	sbc	r23, r23
    1666:	06 a1       	ldd	r16, Z+38	; 0x26
    1668:	17 a1       	ldd	r17, Z+39	; 0x27
    166a:	20 a5       	ldd	r18, Z+40	; 0x28
    166c:	31 a5       	ldd	r19, Z+41	; 0x29
    166e:	40 0f       	add	r20, r16
    1670:	51 1f       	adc	r21, r17
    1672:	62 1f       	adc	r22, r18
    1674:	73 1f       	adc	r23, r19
    1676:	46 a3       	std	Z+38, r20	; 0x26
    1678:	57 a3       	std	Z+39, r21	; 0x27
    167a:	60 a7       	std	Z+40, r22	; 0x28
    167c:	71 a7       	std	Z+41, r23	; 0x29
    167e:	84 89       	ldd	r24, Z+20	; 0x14
    1680:	95 89       	ldd	r25, Z+21	; 0x15
    1682:	a6 89       	ldd	r26, Z+22	; 0x16
    1684:	b7 89       	ldd	r27, Z+23	; 0x17
    1686:	84 17       	cp	r24, r20
    1688:	95 07       	cpc	r25, r21
    168a:	a6 07       	cpc	r26, r22
    168c:	b7 07       	cpc	r27, r23
    168e:	20 f4       	brcc	.+8      	; 0x1698 <_ZN5Rotor10StoptimeUpEi+0x40>
    1690:	86 a3       	std	Z+38, r24	; 0x26
    1692:	97 a3       	std	Z+39, r25	; 0x27
    1694:	a0 a7       	std	Z+40, r26	; 0x28
    1696:	b1 a7       	std	Z+41, r27	; 0x29
    1698:	1f 91       	pop	r17
    169a:	0f 91       	pop	r16
    169c:	08 95       	ret

0000169e <_ZN5Rotor12StoptimeDownEi>:
    169e:	fc 01       	movw	r30, r24
    16a0:	86 a1       	ldd	r24, Z+38	; 0x26
    16a2:	97 a1       	ldd	r25, Z+39	; 0x27
    16a4:	a0 a5       	ldd	r26, Z+40	; 0x28
    16a6:	b1 a5       	ldd	r27, Z+41	; 0x29
    16a8:	ab 01       	movw	r20, r22
    16aa:	77 0f       	add	r23, r23
    16ac:	66 0b       	sbc	r22, r22
    16ae:	77 0b       	sbc	r23, r23
    16b0:	48 17       	cp	r20, r24
    16b2:	59 07       	cpc	r21, r25
    16b4:	6a 07       	cpc	r22, r26
    16b6:	7b 07       	cpc	r23, r27
    16b8:	48 f4       	brcc	.+18     	; 0x16cc <_ZN5Rotor12StoptimeDownEi+0x2e>
    16ba:	84 1b       	sub	r24, r20
    16bc:	95 0b       	sbc	r25, r21
    16be:	a6 0b       	sbc	r26, r22
    16c0:	b7 0b       	sbc	r27, r23
    16c2:	86 a3       	std	Z+38, r24	; 0x26
    16c4:	97 a3       	std	Z+39, r25	; 0x27
    16c6:	a0 a7       	std	Z+40, r26	; 0x28
    16c8:	b1 a7       	std	Z+41, r27	; 0x29
    16ca:	08 95       	ret
    16cc:	80 89       	ldd	r24, Z+16	; 0x10
    16ce:	91 89       	ldd	r25, Z+17	; 0x11
    16d0:	a2 89       	ldd	r26, Z+18	; 0x12
    16d2:	b3 89       	ldd	r27, Z+19	; 0x13
    16d4:	86 a3       	std	Z+38, r24	; 0x26
    16d6:	97 a3       	std	Z+39, r25	; 0x27
    16d8:	a0 a7       	std	Z+40, r26	; 0x28
    16da:	b1 a7       	std	Z+41, r27	; 0x29
    16dc:	08 95       	ret

000016de <_ZN5Rotor13WorkCurrentUpEi>:
    16de:	fc 01       	movw	r30, r24
    16e0:	26 a5       	ldd	r18, Z+46	; 0x2e
    16e2:	37 a5       	ldd	r19, Z+47	; 0x2f
    16e4:	62 0f       	add	r22, r18
    16e6:	73 1f       	adc	r23, r19
    16e8:	69 3e       	cpi	r22, 0xE9	; 233
    16ea:	f3 e0       	ldi	r31, 0x03	; 3
    16ec:	7f 07       	cpc	r23, r31
    16ee:	24 f4       	brge	.+8      	; 0x16f8 <_ZN5Rotor13WorkCurrentUpEi+0x1a>
    16f0:	fc 01       	movw	r30, r24
    16f2:	77 a7       	std	Z+47, r23	; 0x2f
    16f4:	66 a7       	std	Z+46, r22	; 0x2e
    16f6:	08 95       	ret
    16f8:	20 e1       	ldi	r18, 0x10	; 16
    16fa:	37 e2       	ldi	r19, 0x27	; 39
    16fc:	fc 01       	movw	r30, r24
    16fe:	37 a7       	std	Z+47, r19	; 0x2f
    1700:	26 a7       	std	Z+46, r18	; 0x2e
    1702:	08 95       	ret

00001704 <_ZN5Rotor15WorkCurrentDownEi>:
    1704:	fc 01       	movw	r30, r24
    1706:	26 a5       	ldd	r18, Z+46	; 0x2e
    1708:	37 a5       	ldd	r19, Z+47	; 0x2f
    170a:	62 17       	cp	r22, r18
    170c:	73 07       	cpc	r23, r19
    170e:	2c f4       	brge	.+10     	; 0x171a <_ZN5Rotor15WorkCurrentDownEi+0x16>
    1710:	26 1b       	sub	r18, r22
    1712:	37 0b       	sbc	r19, r23
    1714:	37 a7       	std	Z+47, r19	; 0x2f
    1716:	26 a7       	std	Z+46, r18	; 0x2e
    1718:	08 95       	ret
    171a:	21 e0       	ldi	r18, 0x01	; 1
    171c:	30 e0       	ldi	r19, 0x00	; 0
    171e:	fc 01       	movw	r30, r24
    1720:	37 a7       	std	Z+47, r19	; 0x2f
    1722:	26 a7       	std	Z+46, r18	; 0x2e
    1724:	08 95       	ret

00001726 <_ZN5Rotor12RotorStoppedEv>:
    1726:	fc 01       	movw	r30, r24
    1728:	83 8d       	ldd	r24, Z+27	; 0x1b
    172a:	81 11       	cpse	r24, r1
    172c:	07 c0       	rjmp	.+14     	; 0x173c <_ZN5Rotor12RotorStoppedEv+0x16>
    172e:	90 8d       	ldd	r25, Z+24	; 0x18
    1730:	91 11       	cpse	r25, r1
    1732:	05 c0       	rjmp	.+10     	; 0x173e <_ZN5Rotor12RotorStoppedEv+0x18>
    1734:	91 8d       	ldd	r25, Z+25	; 0x19
    1736:	81 e0       	ldi	r24, 0x01	; 1
    1738:	89 27       	eor	r24, r25
    173a:	08 95       	ret
    173c:	80 e0       	ldi	r24, 0x00	; 0
    173e:	08 95       	ret

00001740 <_ZN5Rotor11StartAdjustEv>:
    1740:	dc 01       	movw	r26, r24
    1742:	41 e0       	ldi	r20, 0x01	; 1
    1744:	50 e0       	ldi	r21, 0x00	; 0
    1746:	60 e0       	ldi	r22, 0x00	; 0
    1748:	70 e0       	ldi	r23, 0x00	; 0
    174a:	14 96       	adiw	r26, 0x04	; 4
    174c:	4d 93       	st	X+, r20
    174e:	5d 93       	st	X+, r21
    1750:	6d 93       	st	X+, r22
    1752:	7c 93       	st	X, r23
    1754:	17 97       	sbiw	r26, 0x07	; 7
    1756:	21 e0       	ldi	r18, 0x01	; 1
    1758:	58 96       	adiw	r26, 0x18	; 24
    175a:	2c 93       	st	X, r18
    175c:	58 97       	sbiw	r26, 0x18	; 24
    175e:	5d 96       	adiw	r26, 0x1d	; 29
    1760:	2c 93       	st	X, r18
    1762:	fc 01       	movw	r30, r24
    1764:	f5 96       	adiw	r30, 0x35	; 53
    1766:	89 56       	subi	r24, 0x69	; 105
    1768:	9f 4f       	sbci	r25, 0xFF	; 255
    176a:	11 92       	st	Z+, r1
    176c:	11 92       	st	Z+, r1
    176e:	e8 17       	cp	r30, r24
    1770:	f9 07       	cpc	r31, r25
    1772:	d9 f7       	brne	.-10     	; 0x176a <_ZN5Rotor11StartAdjustEv+0x2a>
    1774:	08 95       	ret

00001776 <_ZN5Rotor9AdjustingEv>:
    1776:	cf 93       	push	r28
    1778:	df 93       	push	r29
    177a:	fc 01       	movw	r30, r24
    177c:	82 a9       	ldd	r24, Z+50	; 0x32
    177e:	93 a9       	ldd	r25, Z+51	; 0x33
    1780:	01 96       	adiw	r24, 0x01	; 1
    1782:	89 3e       	cpi	r24, 0xE9	; 233
    1784:	23 e0       	ldi	r18, 0x03	; 3
    1786:	92 07       	cpc	r25, r18
    1788:	1c f4       	brge	.+6      	; 0x1790 <_ZN5Rotor9AdjustingEv+0x1a>
    178a:	93 ab       	std	Z+51, r25	; 0x33
    178c:	82 ab       	std	Z+50, r24	; 0x32
    178e:	4e c0       	rjmp	.+156    	; 0x182c <_ZN5Rotor9AdjustingEv+0xb6>
    1790:	13 aa       	std	Z+51, r1	; 0x33
    1792:	12 aa       	std	Z+50, r1	; 0x32
    1794:	20 a9       	ldd	r18, Z+48	; 0x30
    1796:	31 a9       	ldd	r19, Z+49	; 0x31
    1798:	86 a5       	ldd	r24, Z+46	; 0x2e
    179a:	97 a5       	ldd	r25, Z+47	; 0x2f
    179c:	28 17       	cp	r18, r24
    179e:	39 07       	cpc	r19, r25
    17a0:	c4 f4       	brge	.+48     	; 0x17d2 <_ZN5Rotor9AdjustingEv+0x5c>
    17a2:	80 81       	ld	r24, Z
    17a4:	91 81       	ldd	r25, Z+1	; 0x01
    17a6:	a2 81       	ldd	r26, Z+2	; 0x02
    17a8:	b3 81       	ldd	r27, Z+3	; 0x03
    17aa:	82 33       	cpi	r24, 0x32	; 50
    17ac:	91 05       	cpc	r25, r1
    17ae:	a1 05       	cpc	r26, r1
    17b0:	b1 05       	cpc	r27, r1
    17b2:	78 f4       	brcc	.+30     	; 0x17d2 <_ZN5Rotor9AdjustingEv+0x5c>
    17b4:	ec 01       	movw	r28, r24
    17b6:	cc 0f       	add	r28, r28
    17b8:	dd 1f       	adc	r29, r29
    17ba:	ce 0f       	add	r28, r30
    17bc:	df 1f       	adc	r29, r31
    17be:	2d a9       	ldd	r18, Y+53	; 0x35
    17c0:	3e a9       	ldd	r19, Y+54	; 0x36
    17c2:	2f 3f       	cpi	r18, 0xFF	; 255
    17c4:	31 05       	cpc	r19, r1
    17c6:	2c f4       	brge	.+10     	; 0x17d2 <_ZN5Rotor9AdjustingEv+0x5c>
    17c8:	2f 5f       	subi	r18, 0xFF	; 255
    17ca:	3f 4f       	sbci	r19, 0xFF	; 255
    17cc:	3e ab       	std	Y+54, r19	; 0x36
    17ce:	2d ab       	std	Y+53, r18	; 0x35
    17d0:	2d c0       	rjmp	.+90     	; 0x182c <_ZN5Rotor9AdjustingEv+0xb6>
    17d2:	80 81       	ld	r24, Z
    17d4:	91 81       	ldd	r25, Z+1	; 0x01
    17d6:	a2 81       	ldd	r26, Z+2	; 0x02
    17d8:	b3 81       	ldd	r27, Z+3	; 0x03
    17da:	81 33       	cpi	r24, 0x31	; 49
    17dc:	91 05       	cpc	r25, r1
    17de:	a1 05       	cpc	r26, r1
    17e0:	b1 05       	cpc	r27, r1
    17e2:	61 f4       	brne	.+24     	; 0x17fc <_ZN5Rotor9AdjustingEv+0x86>
    17e4:	15 8e       	std	Z+29, r1	; 0x1d
    17e6:	81 e0       	ldi	r24, 0x01	; 1
    17e8:	81 8f       	std	Z+25, r24	; 0x19
    17ea:	82 e3       	ldi	r24, 0x32	; 50
    17ec:	90 e0       	ldi	r25, 0x00	; 0
    17ee:	a0 e0       	ldi	r26, 0x00	; 0
    17f0:	b0 e0       	ldi	r27, 0x00	; 0
    17f2:	84 83       	std	Z+4, r24	; 0x04
    17f4:	95 83       	std	Z+5, r25	; 0x05
    17f6:	a6 83       	std	Z+6, r26	; 0x06
    17f8:	b7 83       	std	Z+7, r27	; 0x07
    17fa:	18 c0       	rjmp	.+48     	; 0x182c <_ZN5Rotor9AdjustingEv+0xb6>
    17fc:	ac 01       	movw	r20, r24
    17fe:	bd 01       	movw	r22, r26
    1800:	4f 5f       	subi	r20, 0xFF	; 255
    1802:	5f 4f       	sbci	r21, 0xFF	; 255
    1804:	6f 4f       	sbci	r22, 0xFF	; 255
    1806:	7f 4f       	sbci	r23, 0xFF	; 255
    1808:	40 83       	st	Z, r20
    180a:	51 83       	std	Z+1, r21	; 0x01
    180c:	62 83       	std	Z+2, r22	; 0x02
    180e:	73 83       	std	Z+3, r23	; 0x03
    1810:	44 0f       	add	r20, r20
    1812:	55 1f       	adc	r21, r21
    1814:	ef 01       	movw	r28, r30
    1816:	c4 0f       	add	r28, r20
    1818:	d5 1f       	adc	r29, r21
    181a:	88 0f       	add	r24, r24
    181c:	99 1f       	adc	r25, r25
    181e:	e8 0f       	add	r30, r24
    1820:	f9 1f       	adc	r31, r25
    1822:	85 a9       	ldd	r24, Z+53	; 0x35
    1824:	96 a9       	ldd	r25, Z+54	; 0x36
    1826:	0a 97       	sbiw	r24, 0x0a	; 10
    1828:	9e ab       	std	Y+54, r25	; 0x36
    182a:	8d ab       	std	Y+53, r24	; 0x35
    182c:	df 91       	pop	r29
    182e:	cf 91       	pop	r28
    1830:	08 95       	ret

00001832 <_ZN5Rotor8ActivityEv>:
    1832:	4f 92       	push	r4
    1834:	5f 92       	push	r5
    1836:	6f 92       	push	r6
    1838:	7f 92       	push	r7
    183a:	8f 92       	push	r8
    183c:	9f 92       	push	r9
    183e:	af 92       	push	r10
    1840:	bf 92       	push	r11
    1842:	cf 92       	push	r12
    1844:	df 92       	push	r13
    1846:	ef 92       	push	r14
    1848:	ff 92       	push	r15
    184a:	cf 93       	push	r28
    184c:	df 93       	push	r29
    184e:	00 d0       	rcall	.+0      	; 0x1850 <_ZN5Rotor8ActivityEv+0x1e>
    1850:	00 d0       	rcall	.+0      	; 0x1852 <_ZN5Rotor8ActivityEv+0x20>
    1852:	00 d0       	rcall	.+0      	; 0x1854 <_ZN5Rotor8ActivityEv+0x22>
    1854:	cd b7       	in	r28, 0x3d	; 61
    1856:	de b7       	in	r29, 0x3e	; 62
    1858:	9e 83       	std	Y+6, r25	; 0x06
    185a:	8d 83       	std	Y+5, r24	; 0x05
    185c:	dc 01       	movw	r26, r24
    185e:	58 96       	adiw	r26, 0x18	; 24
    1860:	8c 91       	ld	r24, X
    1862:	58 97       	sbiw	r26, 0x18	; 24
    1864:	88 23       	and	r24, r24
    1866:	39 f0       	breq	.+14     	; 0x1876 <_ZN5Rotor8ActivityEv+0x44>
    1868:	59 96       	adiw	r26, 0x19	; 25
    186a:	8c 91       	ld	r24, X
    186c:	59 97       	sbiw	r26, 0x19	; 25
    186e:	88 23       	and	r24, r24
    1870:	11 f0       	breq	.+4      	; 0x1876 <_ZN5Rotor8ActivityEv+0x44>
    1872:	58 96       	adiw	r26, 0x18	; 24
    1874:	1c 92       	st	X, r1
    1876:	ed 81       	ldd	r30, Y+5	; 0x05
    1878:	fe 81       	ldd	r31, Y+6	; 0x06
    187a:	82 8d       	ldd	r24, Z+26	; 0x1a
    187c:	88 23       	and	r24, r24
    187e:	81 f0       	breq	.+32     	; 0x18a0 <_ZN5Rotor8ActivityEv+0x6e>
    1880:	83 8d       	ldd	r24, Z+27	; 0x1b
    1882:	81 11       	cpse	r24, r1
    1884:	fe c0       	rjmp	.+508    	; 0x1a82 <_ZN5Rotor8ActivityEv+0x250>
    1886:	84 8d       	ldd	r24, Z+28	; 0x1c
    1888:	81 11       	cpse	r24, r1
    188a:	03 c0       	rjmp	.+6      	; 0x1892 <_ZN5Rotor8ActivityEv+0x60>
    188c:	81 e0       	ldi	r24, 0x01	; 1
    188e:	84 8f       	std	Z+28, r24	; 0x1c
    1890:	04 c0       	rjmp	.+8      	; 0x189a <_ZN5Rotor8ActivityEv+0x68>
    1892:	ad 81       	ldd	r26, Y+5	; 0x05
    1894:	be 81       	ldd	r27, Y+6	; 0x06
    1896:	5c 96       	adiw	r26, 0x1c	; 28
    1898:	1c 92       	st	X, r1
    189a:	ed 81       	ldd	r30, Y+5	; 0x05
    189c:	fe 81       	ldd	r31, Y+6	; 0x06
    189e:	12 8e       	std	Z+26, r1	; 0x1a
    18a0:	ad 81       	ldd	r26, Y+5	; 0x05
    18a2:	be 81       	ldd	r27, Y+6	; 0x06
    18a4:	58 96       	adiw	r26, 0x18	; 24
    18a6:	8c 91       	ld	r24, X
    18a8:	58 97       	sbiw	r26, 0x18	; 24
    18aa:	88 23       	and	r24, r24
    18ac:	09 f4       	brne	.+2      	; 0x18b0 <_ZN5Rotor8ActivityEv+0x7e>
    18ae:	5f c0       	rjmp	.+190    	; 0x196e <_ZN5Rotor8ActivityEv+0x13c>
    18b0:	eb ed       	ldi	r30, 0xDB	; 219
    18b2:	f5 e0       	ldi	r31, 0x05	; 5
    18b4:	31 97       	sbiw	r30, 0x01	; 1
    18b6:	f1 f7       	brne	.-4      	; 0x18b4 <_ZN5Rotor8ActivityEv+0x82>
    18b8:	00 c0       	rjmp	.+0      	; 0x18ba <_ZN5Rotor8ActivityEv+0x88>
    18ba:	00 00       	nop
    18bc:	92 96       	adiw	r26, 0x22	; 34
    18be:	cd 90       	ld	r12, X+
    18c0:	dd 90       	ld	r13, X+
    18c2:	ed 90       	ld	r14, X+
    18c4:	fc 90       	ld	r15, X
    18c6:	95 97       	sbiw	r26, 0x25	; 37
    18c8:	ff ef       	ldi	r31, 0xFF	; 255
    18ca:	cf 1a       	sub	r12, r31
    18cc:	df 0a       	sbc	r13, r31
    18ce:	ef 0a       	sbc	r14, r31
    18d0:	ff 0a       	sbc	r15, r31
    18d2:	ad 81       	ldd	r26, Y+5	; 0x05
    18d4:	be 81       	ldd	r27, Y+6	; 0x06
    18d6:	92 96       	adiw	r26, 0x22	; 34
    18d8:	cd 92       	st	X+, r12
    18da:	dd 92       	st	X+, r13
    18dc:	ed 92       	st	X+, r14
    18de:	fc 92       	st	X, r15
    18e0:	95 97       	sbiw	r26, 0x25	; 37
    18e2:	18 96       	adiw	r26, 0x08	; 8
    18e4:	8d 90       	ld	r8, X+
    18e6:	9d 90       	ld	r9, X+
    18e8:	ad 90       	ld	r10, X+
    18ea:	bc 90       	ld	r11, X
    18ec:	1b 97       	sbiw	r26, 0x0b	; 11
    18ee:	5e 96       	adiw	r26, 0x1e	; 30
    18f0:	4d 90       	ld	r4, X+
    18f2:	5d 90       	ld	r5, X+
    18f4:	6d 90       	ld	r6, X+
    18f6:	7c 90       	ld	r7, X
    18f8:	91 97       	sbiw	r26, 0x21	; 33
    18fa:	fd 01       	movw	r30, r26
    18fc:	84 81       	ldd	r24, Z+4	; 0x04
    18fe:	95 81       	ldd	r25, Z+5	; 0x05
    1900:	a6 81       	ldd	r26, Z+6	; 0x06
    1902:	b7 81       	ldd	r27, Z+7	; 0x07
    1904:	9c 01       	movw	r18, r24
    1906:	ad 01       	movw	r20, r26
    1908:	28 19       	sub	r18, r8
    190a:	39 09       	sbc	r19, r9
    190c:	4a 09       	sbc	r20, r10
    190e:	5b 09       	sbc	r21, r11
    1910:	c7 01       	movw	r24, r14
    1912:	b6 01       	movw	r22, r12
    1914:	60 d1       	rcall	.+704    	; 0x1bd6 <__mulsi3>
    1916:	a3 01       	movw	r20, r6
    1918:	92 01       	movw	r18, r4
    191a:	6c d1       	rcall	.+728    	; 0x1bf4 <__udivmodsi4>
    191c:	da 01       	movw	r26, r20
    191e:	c9 01       	movw	r24, r18
    1920:	88 0d       	add	r24, r8
    1922:	99 1d       	adc	r25, r9
    1924:	aa 1d       	adc	r26, r10
    1926:	bb 1d       	adc	r27, r11
    1928:	00 97       	sbiw	r24, 0x00	; 0
    192a:	a1 05       	cpc	r26, r1
    192c:	b1 05       	cpc	r27, r1
    192e:	39 f0       	breq	.+14     	; 0x193e <_ZN5Rotor8ActivityEv+0x10c>
    1930:	ed 81       	ldd	r30, Y+5	; 0x05
    1932:	fe 81       	ldd	r31, Y+6	; 0x06
    1934:	80 83       	st	Z, r24
    1936:	91 83       	std	Z+1, r25	; 0x01
    1938:	a2 83       	std	Z+2, r26	; 0x02
    193a:	b3 83       	std	Z+3, r27	; 0x03
    193c:	07 c0       	rjmp	.+14     	; 0x194c <_ZN5Rotor8ActivityEv+0x11a>
    193e:	ad 81       	ldd	r26, Y+5	; 0x05
    1940:	be 81       	ldd	r27, Y+6	; 0x06
    1942:	8d 92       	st	X+, r8
    1944:	9d 92       	st	X+, r9
    1946:	ad 92       	st	X+, r10
    1948:	bc 92       	st	X, r11
    194a:	13 97       	sbiw	r26, 0x03	; 3
    194c:	4c 14       	cp	r4, r12
    194e:	5d 04       	cpc	r5, r13
    1950:	6e 04       	cpc	r6, r14
    1952:	7f 04       	cpc	r7, r15
    1954:	60 f4       	brcc	.+24     	; 0x196e <_ZN5Rotor8ActivityEv+0x13c>
    1956:	81 e0       	ldi	r24, 0x01	; 1
    1958:	90 e0       	ldi	r25, 0x00	; 0
    195a:	a0 e0       	ldi	r26, 0x00	; 0
    195c:	b0 e0       	ldi	r27, 0x00	; 0
    195e:	ed 81       	ldd	r30, Y+5	; 0x05
    1960:	fe 81       	ldd	r31, Y+6	; 0x06
    1962:	82 a3       	std	Z+34, r24	; 0x22
    1964:	93 a3       	std	Z+35, r25	; 0x23
    1966:	a4 a3       	std	Z+36, r26	; 0x24
    1968:	b5 a3       	std	Z+37, r27	; 0x25
    196a:	83 8f       	std	Z+27, r24	; 0x1b
    196c:	10 8e       	std	Z+24, r1	; 0x18
    196e:	ad 81       	ldd	r26, Y+5	; 0x05
    1970:	be 81       	ldd	r27, Y+6	; 0x06
    1972:	59 96       	adiw	r26, 0x19	; 25
    1974:	8c 91       	ld	r24, X
    1976:	59 97       	sbiw	r26, 0x19	; 25
    1978:	88 23       	and	r24, r24
    197a:	09 f4       	brne	.+2      	; 0x197e <_ZN5Rotor8ActivityEv+0x14c>
    197c:	77 c0       	rjmp	.+238    	; 0x1a6c <_ZN5Rotor8ActivityEv+0x23a>
    197e:	eb ed       	ldi	r30, 0xDB	; 219
    1980:	f5 e0       	ldi	r31, 0x05	; 5
    1982:	31 97       	sbiw	r30, 0x01	; 1
    1984:	f1 f7       	brne	.-4      	; 0x1982 <_ZN5Rotor8ActivityEv+0x150>
    1986:	00 c0       	rjmp	.+0      	; 0x1988 <_ZN5Rotor8ActivityEv+0x156>
    1988:	00 00       	nop
    198a:	92 96       	adiw	r26, 0x22	; 34
    198c:	cd 90       	ld	r12, X+
    198e:	dd 90       	ld	r13, X+
    1990:	ed 90       	ld	r14, X+
    1992:	fc 90       	ld	r15, X
    1994:	95 97       	sbiw	r26, 0x25	; 37
    1996:	ff ef       	ldi	r31, 0xFF	; 255
    1998:	cf 1a       	sub	r12, r31
    199a:	df 0a       	sbc	r13, r31
    199c:	ef 0a       	sbc	r14, r31
    199e:	ff 0a       	sbc	r15, r31
    19a0:	ad 81       	ldd	r26, Y+5	; 0x05
    19a2:	be 81       	ldd	r27, Y+6	; 0x06
    19a4:	92 96       	adiw	r26, 0x22	; 34
    19a6:	cd 92       	st	X+, r12
    19a8:	dd 92       	st	X+, r13
    19aa:	ed 92       	st	X+, r14
    19ac:	fc 92       	st	X, r15
    19ae:	95 97       	sbiw	r26, 0x25	; 37
    19b0:	14 96       	adiw	r26, 0x04	; 4
    19b2:	8d 90       	ld	r8, X+
    19b4:	9d 90       	ld	r9, X+
    19b6:	ad 90       	ld	r10, X+
    19b8:	bc 90       	ld	r11, X
    19ba:	17 97       	sbiw	r26, 0x07	; 7
    19bc:	18 96       	adiw	r26, 0x08	; 8
    19be:	4d 90       	ld	r4, X+
    19c0:	5d 90       	ld	r5, X+
    19c2:	6d 90       	ld	r6, X+
    19c4:	7c 90       	ld	r7, X
    19c6:	1b 97       	sbiw	r26, 0x0b	; 11
    19c8:	96 96       	adiw	r26, 0x26	; 38
    19ca:	8d 91       	ld	r24, X+
    19cc:	9d 91       	ld	r25, X+
    19ce:	0d 90       	ld	r0, X+
    19d0:	bc 91       	ld	r27, X
    19d2:	a0 2d       	mov	r26, r0
    19d4:	89 83       	std	Y+1, r24	; 0x01
    19d6:	9a 83       	std	Y+2, r25	; 0x02
    19d8:	ab 83       	std	Y+3, r26	; 0x03
    19da:	bc 83       	std	Y+4, r27	; 0x04
    19dc:	a5 01       	movw	r20, r10
    19de:	94 01       	movw	r18, r8
    19e0:	24 19       	sub	r18, r4
    19e2:	35 09       	sbc	r19, r5
    19e4:	46 09       	sbc	r20, r6
    19e6:	57 09       	sbc	r21, r7
    19e8:	c7 01       	movw	r24, r14
    19ea:	b6 01       	movw	r22, r12
    19ec:	f4 d0       	rcall	.+488    	; 0x1bd6 <__mulsi3>
    19ee:	29 81       	ldd	r18, Y+1	; 0x01
    19f0:	3a 81       	ldd	r19, Y+2	; 0x02
    19f2:	4b 81       	ldd	r20, Y+3	; 0x03
    19f4:	5c 81       	ldd	r21, Y+4	; 0x04
    19f6:	fe d0       	rcall	.+508    	; 0x1bf4 <__udivmodsi4>
    19f8:	82 1a       	sub	r8, r18
    19fa:	93 0a       	sbc	r9, r19
    19fc:	a4 0a       	sbc	r10, r20
    19fe:	b5 0a       	sbc	r11, r21
    1a00:	39 f0       	breq	.+14     	; 0x1a10 <_ZN5Rotor8ActivityEv+0x1de>
    1a02:	ed 81       	ldd	r30, Y+5	; 0x05
    1a04:	fe 81       	ldd	r31, Y+6	; 0x06
    1a06:	80 82       	st	Z, r8
    1a08:	91 82       	std	Z+1, r9	; 0x01
    1a0a:	a2 82       	std	Z+2, r10	; 0x02
    1a0c:	b3 82       	std	Z+3, r11	; 0x03
    1a0e:	07 c0       	rjmp	.+14     	; 0x1a1e <_ZN5Rotor8ActivityEv+0x1ec>
    1a10:	ad 81       	ldd	r26, Y+5	; 0x05
    1a12:	be 81       	ldd	r27, Y+6	; 0x06
    1a14:	4d 92       	st	X+, r4
    1a16:	5d 92       	st	X+, r5
    1a18:	6d 92       	st	X+, r6
    1a1a:	7c 92       	st	X, r7
    1a1c:	13 97       	sbiw	r26, 0x03	; 3
    1a1e:	89 81       	ldd	r24, Y+1	; 0x01
    1a20:	9a 81       	ldd	r25, Y+2	; 0x02
    1a22:	ab 81       	ldd	r26, Y+3	; 0x03
    1a24:	bc 81       	ldd	r27, Y+4	; 0x04
    1a26:	8c 15       	cp	r24, r12
    1a28:	9d 05       	cpc	r25, r13
    1a2a:	ae 05       	cpc	r26, r14
    1a2c:	bf 05       	cpc	r27, r15
    1a2e:	f0 f4       	brcc	.+60     	; 0x1a6c <_ZN5Rotor8ActivityEv+0x23a>
    1a30:	81 e0       	ldi	r24, 0x01	; 1
    1a32:	90 e0       	ldi	r25, 0x00	; 0
    1a34:	a0 e0       	ldi	r26, 0x00	; 0
    1a36:	b0 e0       	ldi	r27, 0x00	; 0
    1a38:	ed 81       	ldd	r30, Y+5	; 0x05
    1a3a:	fe 81       	ldd	r31, Y+6	; 0x06
    1a3c:	82 a3       	std	Z+34, r24	; 0x22
    1a3e:	93 a3       	std	Z+35, r25	; 0x23
    1a40:	a4 a3       	std	Z+36, r26	; 0x24
    1a42:	b5 a3       	std	Z+37, r27	; 0x25
    1a44:	13 8e       	std	Z+27, r1	; 0x1b
    1a46:	15 8e       	std	Z+29, r1	; 0x1d
    1a48:	11 8e       	std	Z+25, r1	; 0x19
    1a4a:	82 8d       	ldd	r24, Z+26	; 0x1a
    1a4c:	88 23       	and	r24, r24
    1a4e:	f9 f0       	breq	.+62     	; 0x1a8e <_ZN5Rotor8ActivityEv+0x25c>
    1a50:	ff e7       	ldi	r31, 0x7F	; 127
    1a52:	29 ea       	ldi	r18, 0xA9	; 169
    1a54:	83 e0       	ldi	r24, 0x03	; 3
    1a56:	f1 50       	subi	r31, 0x01	; 1
    1a58:	20 40       	sbci	r18, 0x00	; 0
    1a5a:	80 40       	sbci	r24, 0x00	; 0
    1a5c:	e1 f7       	brne	.-8      	; 0x1a56 <_ZN5Rotor8ActivityEv+0x224>
    1a5e:	00 c0       	rjmp	.+0      	; 0x1a60 <_ZN5Rotor8ActivityEv+0x22e>
    1a60:	00 00       	nop
    1a62:	81 e0       	ldi	r24, 0x01	; 1
    1a64:	ad 81       	ldd	r26, Y+5	; 0x05
    1a66:	be 81       	ldd	r27, Y+6	; 0x06
    1a68:	58 96       	adiw	r26, 0x18	; 24
    1a6a:	8c 93       	st	X, r24
    1a6c:	ed 81       	ldd	r30, Y+5	; 0x05
    1a6e:	fe 81       	ldd	r31, Y+6	; 0x06
    1a70:	85 8d       	ldd	r24, Z+29	; 0x1d
    1a72:	88 23       	and	r24, r24
    1a74:	61 f0       	breq	.+24     	; 0x1a8e <_ZN5Rotor8ActivityEv+0x25c>
    1a76:	83 8d       	ldd	r24, Z+27	; 0x1b
    1a78:	88 23       	and	r24, r24
    1a7a:	49 f0       	breq	.+18     	; 0x1a8e <_ZN5Rotor8ActivityEv+0x25c>
    1a7c:	cf 01       	movw	r24, r30
    1a7e:	7b de       	rcall	.-778    	; 0x1776 <_ZN5Rotor9AdjustingEv>
    1a80:	06 c0       	rjmp	.+12     	; 0x1a8e <_ZN5Rotor8ActivityEv+0x25c>
    1a82:	81 e0       	ldi	r24, 0x01	; 1
    1a84:	ad 81       	ldd	r26, Y+5	; 0x05
    1a86:	be 81       	ldd	r27, Y+6	; 0x06
    1a88:	59 96       	adiw	r26, 0x19	; 25
    1a8a:	8c 93       	st	X, r24
    1a8c:	09 cf       	rjmp	.-494    	; 0x18a0 <_ZN5Rotor8ActivityEv+0x6e>
    1a8e:	26 96       	adiw	r28, 0x06	; 6
    1a90:	0f b6       	in	r0, 0x3f	; 63
    1a92:	f8 94       	cli
    1a94:	de bf       	out	0x3e, r29	; 62
    1a96:	0f be       	out	0x3f, r0	; 63
    1a98:	cd bf       	out	0x3d, r28	; 61
    1a9a:	df 91       	pop	r29
    1a9c:	cf 91       	pop	r28
    1a9e:	ff 90       	pop	r15
    1aa0:	ef 90       	pop	r14
    1aa2:	df 90       	pop	r13
    1aa4:	cf 90       	pop	r12
    1aa6:	bf 90       	pop	r11
    1aa8:	af 90       	pop	r10
    1aaa:	9f 90       	pop	r9
    1aac:	8f 90       	pop	r8
    1aae:	7f 90       	pop	r7
    1ab0:	6f 90       	pop	r6
    1ab2:	5f 90       	pop	r5
    1ab4:	4f 90       	pop	r4
    1ab6:	08 95       	ret

00001ab8 <_ZN5Rotor8PortsOffEv>:
    1ab8:	c0 98       	cbi	0x18, 0	; 24
    1aba:	c1 98       	cbi	0x18, 1	; 24
    1abc:	c2 98       	cbi	0x18, 2	; 24
    1abe:	aa 98       	cbi	0x15, 2	; 21
    1ac0:	c4 98       	cbi	0x18, 4	; 24
    1ac2:	c5 98       	cbi	0x18, 5	; 24
    1ac4:	08 95       	ret

00001ac6 <_ZN5Rotor11MoveForvardEv>:
    1ac6:	fc 01       	movw	r30, r24
    1ac8:	22 a5       	ldd	r18, Z+42	; 0x2a
    1aca:	33 a5       	ldd	r19, Z+43	; 0x2b
    1acc:	23 30       	cpi	r18, 0x03	; 3
    1ace:	31 05       	cpc	r19, r1
    1ad0:	b1 f0       	breq	.+44     	; 0x1afe <_ZN5Rotor11MoveForvardEv+0x38>
    1ad2:	3c f4       	brge	.+14     	; 0x1ae2 <_ZN5Rotor11MoveForvardEv+0x1c>
    1ad4:	21 30       	cpi	r18, 0x01	; 1
    1ad6:	31 05       	cpc	r19, r1
    1ad8:	61 f0       	breq	.+24     	; 0x1af2 <_ZN5Rotor11MoveForvardEv+0x2c>
    1ada:	22 30       	cpi	r18, 0x02	; 2
    1adc:	31 05       	cpc	r19, r1
    1ade:	61 f0       	breq	.+24     	; 0x1af8 <_ZN5Rotor11MoveForvardEv+0x32>
    1ae0:	19 c0       	rjmp	.+50     	; 0x1b14 <_ZN5Rotor11MoveForvardEv+0x4e>
    1ae2:	25 30       	cpi	r18, 0x05	; 5
    1ae4:	31 05       	cpc	r19, r1
    1ae6:	89 f0       	breq	.+34     	; 0x1b0a <_ZN5Rotor11MoveForvardEv+0x44>
    1ae8:	6c f0       	brlt	.+26     	; 0x1b04 <_ZN5Rotor11MoveForvardEv+0x3e>
    1aea:	26 30       	cpi	r18, 0x06	; 6
    1aec:	31 05       	cpc	r19, r1
    1aee:	81 f0       	breq	.+32     	; 0x1b10 <_ZN5Rotor11MoveForvardEv+0x4a>
    1af0:	11 c0       	rjmp	.+34     	; 0x1b14 <_ZN5Rotor11MoveForvardEv+0x4e>
    1af2:	c4 98       	cbi	0x18, 4	; 24
    1af4:	c2 9a       	sbi	0x18, 2	; 24
    1af6:	0e c0       	rjmp	.+28     	; 0x1b14 <_ZN5Rotor11MoveForvardEv+0x4e>
    1af8:	c1 98       	cbi	0x18, 1	; 24
    1afa:	c5 9a       	sbi	0x18, 5	; 24
    1afc:	0b c0       	rjmp	.+22     	; 0x1b14 <_ZN5Rotor11MoveForvardEv+0x4e>
    1afe:	c2 98       	cbi	0x18, 2	; 24
    1b00:	c0 9a       	sbi	0x18, 0	; 24
    1b02:	08 c0       	rjmp	.+16     	; 0x1b14 <_ZN5Rotor11MoveForvardEv+0x4e>
    1b04:	c5 98       	cbi	0x18, 5	; 24
    1b06:	aa 9a       	sbi	0x15, 2	; 21
    1b08:	05 c0       	rjmp	.+10     	; 0x1b14 <_ZN5Rotor11MoveForvardEv+0x4e>
    1b0a:	c0 98       	cbi	0x18, 0	; 24
    1b0c:	c4 9a       	sbi	0x18, 4	; 24
    1b0e:	02 c0       	rjmp	.+4      	; 0x1b14 <_ZN5Rotor11MoveForvardEv+0x4e>
    1b10:	aa 98       	cbi	0x15, 2	; 21
    1b12:	c1 9a       	sbi	0x18, 1	; 24
    1b14:	22 a5       	ldd	r18, Z+42	; 0x2a
    1b16:	33 a5       	ldd	r19, Z+43	; 0x2b
    1b18:	2f 5f       	subi	r18, 0xFF	; 255
    1b1a:	3f 4f       	sbci	r19, 0xFF	; 255
    1b1c:	27 30       	cpi	r18, 0x07	; 7
    1b1e:	31 05       	cpc	r19, r1
    1b20:	1c f4       	brge	.+6      	; 0x1b28 <_ZN5Rotor11MoveForvardEv+0x62>
    1b22:	33 a7       	std	Z+43, r19	; 0x2b
    1b24:	22 a7       	std	Z+42, r18	; 0x2a
    1b26:	08 95       	ret
    1b28:	81 e0       	ldi	r24, 0x01	; 1
    1b2a:	90 e0       	ldi	r25, 0x00	; 0
    1b2c:	93 a7       	std	Z+43, r25	; 0x2b
    1b2e:	82 a7       	std	Z+42, r24	; 0x2a
    1b30:	08 95       	ret

00001b32 <_ZN5Rotor8MoveBackEv>:
    1b32:	fc 01       	movw	r30, r24
    1b34:	22 a5       	ldd	r18, Z+42	; 0x2a
    1b36:	33 a5       	ldd	r19, Z+43	; 0x2b
    1b38:	23 30       	cpi	r18, 0x03	; 3
    1b3a:	31 05       	cpc	r19, r1
    1b3c:	c1 f0       	breq	.+48     	; 0x1b6e <_ZN5Rotor8MoveBackEv+0x3c>
    1b3e:	3c f4       	brge	.+14     	; 0x1b4e <_ZN5Rotor8MoveBackEv+0x1c>
    1b40:	21 30       	cpi	r18, 0x01	; 1
    1b42:	31 05       	cpc	r19, r1
    1b44:	d1 f0       	breq	.+52     	; 0x1b7a <_ZN5Rotor8MoveBackEv+0x48>
    1b46:	22 30       	cpi	r18, 0x02	; 2
    1b48:	31 05       	cpc	r19, r1
    1b4a:	a1 f0       	breq	.+40     	; 0x1b74 <_ZN5Rotor8MoveBackEv+0x42>
    1b4c:	18 c0       	rjmp	.+48     	; 0x1b7e <_ZN5Rotor8MoveBackEv+0x4c>
    1b4e:	25 30       	cpi	r18, 0x05	; 5
    1b50:	31 05       	cpc	r19, r1
    1b52:	39 f0       	breq	.+14     	; 0x1b62 <_ZN5Rotor8MoveBackEv+0x30>
    1b54:	4c f0       	brlt	.+18     	; 0x1b68 <_ZN5Rotor8MoveBackEv+0x36>
    1b56:	26 30       	cpi	r18, 0x06	; 6
    1b58:	31 05       	cpc	r19, r1
    1b5a:	89 f4       	brne	.+34     	; 0x1b7e <_ZN5Rotor8MoveBackEv+0x4c>
    1b5c:	c4 9a       	sbi	0x18, 4	; 24
    1b5e:	c2 98       	cbi	0x18, 2	; 24
    1b60:	0e c0       	rjmp	.+28     	; 0x1b7e <_ZN5Rotor8MoveBackEv+0x4c>
    1b62:	c1 9a       	sbi	0x18, 1	; 24
    1b64:	c5 98       	cbi	0x18, 5	; 24
    1b66:	0b c0       	rjmp	.+22     	; 0x1b7e <_ZN5Rotor8MoveBackEv+0x4c>
    1b68:	c2 9a       	sbi	0x18, 2	; 24
    1b6a:	c0 98       	cbi	0x18, 0	; 24
    1b6c:	08 c0       	rjmp	.+16     	; 0x1b7e <_ZN5Rotor8MoveBackEv+0x4c>
    1b6e:	c5 9a       	sbi	0x18, 5	; 24
    1b70:	aa 98       	cbi	0x15, 2	; 21
    1b72:	05 c0       	rjmp	.+10     	; 0x1b7e <_ZN5Rotor8MoveBackEv+0x4c>
    1b74:	c0 9a       	sbi	0x18, 0	; 24
    1b76:	c4 98       	cbi	0x18, 4	; 24
    1b78:	02 c0       	rjmp	.+4      	; 0x1b7e <_ZN5Rotor8MoveBackEv+0x4c>
    1b7a:	aa 9a       	sbi	0x15, 2	; 21
    1b7c:	c1 98       	cbi	0x18, 1	; 24
    1b7e:	22 a5       	ldd	r18, Z+42	; 0x2a
    1b80:	33 a5       	ldd	r19, Z+43	; 0x2b
    1b82:	2f 5f       	subi	r18, 0xFF	; 255
    1b84:	3f 4f       	sbci	r19, 0xFF	; 255
    1b86:	27 30       	cpi	r18, 0x07	; 7
    1b88:	31 05       	cpc	r19, r1
    1b8a:	1c f4       	brge	.+6      	; 0x1b92 <_ZN5Rotor8MoveBackEv+0x60>
    1b8c:	33 a7       	std	Z+43, r19	; 0x2b
    1b8e:	22 a7       	std	Z+42, r18	; 0x2a
    1b90:	08 95       	ret
    1b92:	81 e0       	ldi	r24, 0x01	; 1
    1b94:	90 e0       	ldi	r25, 0x00	; 0
    1b96:	93 a7       	std	Z+43, r25	; 0x2b
    1b98:	82 a7       	std	Z+42, r24	; 0x2a
    1b9a:	08 95       	ret

00001b9c <_ZN5Rotor4MoveEv>:
    1b9c:	cf 93       	push	r28
    1b9e:	df 93       	push	r29
    1ba0:	ec 01       	movw	r28, r24
    1ba2:	8b 8d       	ldd	r24, Y+27	; 0x1b
    1ba4:	81 11       	cpse	r24, r1
    1ba6:	03 c0       	rjmp	.+6      	; 0x1bae <_ZN5Rotor4MoveEv+0x12>
    1ba8:	88 8d       	ldd	r24, Y+24	; 0x18
    1baa:	88 23       	and	r24, r24
    1bac:	49 f0       	breq	.+18     	; 0x1bc0 <_ZN5Rotor4MoveEv+0x24>
    1bae:	8c 8d       	ldd	r24, Y+28	; 0x1c
    1bb0:	81 11       	cpse	r24, r1
    1bb2:	03 c0       	rjmp	.+6      	; 0x1bba <_ZN5Rotor4MoveEv+0x1e>
    1bb4:	ce 01       	movw	r24, r28
    1bb6:	87 df       	rcall	.-242    	; 0x1ac6 <_ZN5Rotor11MoveForvardEv>
    1bb8:	0b c0       	rjmp	.+22     	; 0x1bd0 <_ZN5Rotor4MoveEv+0x34>
    1bba:	ce 01       	movw	r24, r28
    1bbc:	ba df       	rcall	.-140    	; 0x1b32 <_ZN5Rotor8MoveBackEv>
    1bbe:	08 c0       	rjmp	.+16     	; 0x1bd0 <_ZN5Rotor4MoveEv+0x34>
    1bc0:	ce 01       	movw	r24, r28
    1bc2:	7a df       	rcall	.-268    	; 0x1ab8 <_ZN5Rotor8PortsOffEv>
    1bc4:	81 e0       	ldi	r24, 0x01	; 1
    1bc6:	90 e0       	ldi	r25, 0x00	; 0
    1bc8:	9b a7       	std	Y+43, r25	; 0x2b
    1bca:	8a a7       	std	Y+42, r24	; 0x2a
    1bcc:	1d a6       	std	Y+45, r1	; 0x2d
    1bce:	1c a6       	std	Y+44, r1	; 0x2c
    1bd0:	df 91       	pop	r29
    1bd2:	cf 91       	pop	r28
    1bd4:	08 95       	ret

00001bd6 <__mulsi3>:
    1bd6:	db 01       	movw	r26, r22
    1bd8:	8f 93       	push	r24
    1bda:	9f 93       	push	r25
    1bdc:	49 d0       	rcall	.+146    	; 0x1c70 <__muluhisi3>
    1bde:	bf 91       	pop	r27
    1be0:	af 91       	pop	r26
    1be2:	a2 9f       	mul	r26, r18
    1be4:	80 0d       	add	r24, r0
    1be6:	91 1d       	adc	r25, r1
    1be8:	a3 9f       	mul	r26, r19
    1bea:	90 0d       	add	r25, r0
    1bec:	b2 9f       	mul	r27, r18
    1bee:	90 0d       	add	r25, r0
    1bf0:	11 24       	eor	r1, r1
    1bf2:	08 95       	ret

00001bf4 <__udivmodsi4>:
    1bf4:	a1 e2       	ldi	r26, 0x21	; 33
    1bf6:	1a 2e       	mov	r1, r26
    1bf8:	aa 1b       	sub	r26, r26
    1bfa:	bb 1b       	sub	r27, r27
    1bfc:	fd 01       	movw	r30, r26
    1bfe:	0d c0       	rjmp	.+26     	; 0x1c1a <__udivmodsi4_ep>

00001c00 <__udivmodsi4_loop>:
    1c00:	aa 1f       	adc	r26, r26
    1c02:	bb 1f       	adc	r27, r27
    1c04:	ee 1f       	adc	r30, r30
    1c06:	ff 1f       	adc	r31, r31
    1c08:	a2 17       	cp	r26, r18
    1c0a:	b3 07       	cpc	r27, r19
    1c0c:	e4 07       	cpc	r30, r20
    1c0e:	f5 07       	cpc	r31, r21
    1c10:	20 f0       	brcs	.+8      	; 0x1c1a <__udivmodsi4_ep>
    1c12:	a2 1b       	sub	r26, r18
    1c14:	b3 0b       	sbc	r27, r19
    1c16:	e4 0b       	sbc	r30, r20
    1c18:	f5 0b       	sbc	r31, r21

00001c1a <__udivmodsi4_ep>:
    1c1a:	66 1f       	adc	r22, r22
    1c1c:	77 1f       	adc	r23, r23
    1c1e:	88 1f       	adc	r24, r24
    1c20:	99 1f       	adc	r25, r25
    1c22:	1a 94       	dec	r1
    1c24:	69 f7       	brne	.-38     	; 0x1c00 <__udivmodsi4_loop>
    1c26:	60 95       	com	r22
    1c28:	70 95       	com	r23
    1c2a:	80 95       	com	r24
    1c2c:	90 95       	com	r25
    1c2e:	9b 01       	movw	r18, r22
    1c30:	ac 01       	movw	r20, r24
    1c32:	bd 01       	movw	r22, r26
    1c34:	cf 01       	movw	r24, r30
    1c36:	08 95       	ret

00001c38 <__divmodsi4>:
    1c38:	05 2e       	mov	r0, r21
    1c3a:	97 fb       	bst	r25, 7
    1c3c:	16 f4       	brtc	.+4      	; 0x1c42 <__divmodsi4+0xa>
    1c3e:	00 94       	com	r0
    1c40:	0f d0       	rcall	.+30     	; 0x1c60 <__negsi2>
    1c42:	57 fd       	sbrc	r21, 7
    1c44:	05 d0       	rcall	.+10     	; 0x1c50 <__divmodsi4_neg2>
    1c46:	d6 df       	rcall	.-84     	; 0x1bf4 <__udivmodsi4>
    1c48:	07 fc       	sbrc	r0, 7
    1c4a:	02 d0       	rcall	.+4      	; 0x1c50 <__divmodsi4_neg2>
    1c4c:	46 f4       	brtc	.+16     	; 0x1c5e <__divmodsi4_exit>
    1c4e:	08 c0       	rjmp	.+16     	; 0x1c60 <__negsi2>

00001c50 <__divmodsi4_neg2>:
    1c50:	50 95       	com	r21
    1c52:	40 95       	com	r20
    1c54:	30 95       	com	r19
    1c56:	21 95       	neg	r18
    1c58:	3f 4f       	sbci	r19, 0xFF	; 255
    1c5a:	4f 4f       	sbci	r20, 0xFF	; 255
    1c5c:	5f 4f       	sbci	r21, 0xFF	; 255

00001c5e <__divmodsi4_exit>:
    1c5e:	08 95       	ret

00001c60 <__negsi2>:
    1c60:	90 95       	com	r25
    1c62:	80 95       	com	r24
    1c64:	70 95       	com	r23
    1c66:	61 95       	neg	r22
    1c68:	7f 4f       	sbci	r23, 0xFF	; 255
    1c6a:	8f 4f       	sbci	r24, 0xFF	; 255
    1c6c:	9f 4f       	sbci	r25, 0xFF	; 255
    1c6e:	08 95       	ret

00001c70 <__muluhisi3>:
    1c70:	0f d0       	rcall	.+30     	; 0x1c90 <__umulhisi3>
    1c72:	a5 9f       	mul	r26, r21
    1c74:	90 0d       	add	r25, r0
    1c76:	b4 9f       	mul	r27, r20
    1c78:	90 0d       	add	r25, r0
    1c7a:	a4 9f       	mul	r26, r20
    1c7c:	80 0d       	add	r24, r0
    1c7e:	91 1d       	adc	r25, r1
    1c80:	11 24       	eor	r1, r1
    1c82:	08 95       	ret

00001c84 <__tablejump2__>:
    1c84:	ee 0f       	add	r30, r30
    1c86:	ff 1f       	adc	r31, r31
    1c88:	05 90       	lpm	r0, Z+
    1c8a:	f4 91       	lpm	r31, Z
    1c8c:	e0 2d       	mov	r30, r0
    1c8e:	09 94       	ijmp

00001c90 <__umulhisi3>:
    1c90:	a2 9f       	mul	r26, r18
    1c92:	b0 01       	movw	r22, r0
    1c94:	b3 9f       	mul	r27, r19
    1c96:	c0 01       	movw	r24, r0
    1c98:	a3 9f       	mul	r26, r19
    1c9a:	01 d0       	rcall	.+2      	; 0x1c9e <__umulhisi3+0xe>
    1c9c:	b2 9f       	mul	r27, r18
    1c9e:	70 0d       	add	r23, r0
    1ca0:	81 1d       	adc	r24, r1
    1ca2:	11 24       	eor	r1, r1
    1ca4:	91 1d       	adc	r25, r1
    1ca6:	08 95       	ret

00001ca8 <_exit>:
    1ca8:	f8 94       	cli

00001caa <__stop_program>:
    1caa:	ff cf       	rjmp	.-2      	; 0x1caa <__stop_program>
